---
triple:          'x86_64-apple-darwin'
binary-path:     '/Users/iden/Desktop/CIS3100/Project1/stocks'
relocations:
  - { offsetInCU: 0x3F, offset: 0x3F, size: 0x8, addend: 0x0, symName: _portfolio, symObjAddr: 0x51420, symBinAddr: 0x10000C000, symSize: 0x0 }
  - { offsetInCU: 0x6ECC, offset: 0x6ECC, size: 0x8, addend: 0x0, symName: __ZNSt3__124__put_character_sequenceB7v160006IcNS_11char_traitsIcEEEERNS_13basic_ostreamIT_T0_EES7_PKS4_m, symObjAddr: 0x2180, symBinAddr: 0x1000030C0, symSize: 0x1F0 }
  - { offsetInCU: 0x8BA6, offset: 0x8BA6, size: 0x8, addend: 0x0, symName: __ZNSt3__1rsB7v160006IcNS_11char_traitsIcEEEERNS_13basic_istreamIT_T0_EES7_RS4_, symObjAddr: 0x320, symBinAddr: 0x100001260, symSize: 0x180 }
  - { offsetInCU: 0x8C28, offset: 0x8C28, size: 0x8, addend: 0x0, symName: __ZNSt3__14endlB7v160006IcNS_11char_traitsIcEEEERNS_13basic_ostreamIT_T0_EES7_, symObjAddr: 0x4C0, symBinAddr: 0x100001400, symSize: 0x50 }
  - { offsetInCU: 0x8C68, offset: 0x8C68, size: 0x8, addend: 0x0, symName: __ZNSt3__1lsB7v160006INS_11char_traitsIcEEEERNS_13basic_ostreamIcT_EES6_PKc, symObjAddr: 0xA80, symBinAddr: 0x1000019C0, symSize: 0x40 }
  - { offsetInCU: 0x8CAE, offset: 0x8CAE, size: 0x8, addend: 0x0, symName: __ZNSt3__1rsB7v160006IcNS_11char_traitsIcEENS_9allocatorIcEEEERNS_13basic_istreamIT_T0_EES9_RNS_12basic_stringIS6_S7_T1_EE, symObjAddr: 0xB90, symBinAddr: 0x100001AD0, symSize: 0x2E0 }
  - { offsetInCU: 0x8D7D, offset: 0x8D7D, size: 0x8, addend: 0x0, symName: __ZNSt3__1neB7v160006ERKNS_19__hash_map_iteratorINS_15__hash_iteratorIPNS_11__hash_nodeINS_17__hash_value_typeINS_12basic_stringIcNS_11char_traitsIcEENS_9allocatorIcEEEENS_5arrayIdLm3EEEEEPvEEEEEESJ_, symObjAddr: 0xE70, symBinAddr: 0x100001DB0, symSize: 0x30 }
  - { offsetInCU: 0x8DBA, offset: 0x8DBA, size: 0x8, addend: 0x0, symName: __ZNSt3__1neB7v160006ERKNS_25__hash_map_const_iteratorINS_21__hash_const_iteratorIPNS_11__hash_nodeINS_17__hash_value_typeINS_12basic_stringIcNS_11char_traitsIcEENS_9allocatorIcEEEENS_5arrayIdLm3EEEEEPvEEEEEESJ_, symObjAddr: 0x1140, symBinAddr: 0x100002080, symSize: 0x30 }
  - { offsetInCU: 0x8DF7, offset: 0x8DF7, size: 0x8, addend: 0x0, symName: __ZNSt3__1lsB7v160006IcNS_11char_traitsIcEENS_9allocatorIcEEEERNS_13basic_ostreamIT_T0_EES9_RKNS_12basic_stringIS6_S7_T1_EE, symObjAddr: 0x11A0, symBinAddr: 0x1000020E0, symSize: 0x50 }
  - { offsetInCU: 0x8E4F, offset: 0x8E4F, size: 0x8, addend: 0x0, symName: __ZNSt3__119__debug_db_insert_cB7v160006INS_13unordered_mapINS_12basic_stringIcNS_11char_traitsIcEENS_9allocatorIcEEEENS_5arrayIdLm3EEENS_4hashIS7_EENS_8equal_toIS7_EENS5_INS_4pairIKS7_S9_EEEEEEEEvPT_, symObjAddr: 0x12C0, symBinAddr: 0x100002200, symSize: 0x10 }
  - { offsetInCU: 0x8E80, offset: 0x8E80, size: 0x8, addend: 0x0, symName: __ZNSt3__130__libcpp_is_constant_evaluatedB7v160006Ev, symObjAddr: 0x1A70, symBinAddr: 0x1000029B0, symSize: 0x10 }
  - { offsetInCU: 0x8E9D, offset: 0x8E9D, size: 0x8, addend: 0x0, symName: __ZNSt3__119__libcpp_deallocateB7v160006EPvmm, symObjAddr: 0x1A80, symBinAddr: 0x1000029C0, symSize: 0x30 }
  - { offsetInCU: 0x8EE5, offset: 0x8EE5, size: 0x8, addend: 0x0, symName: __ZNSt3__127__do_deallocate_handle_sizeB7v160006IJEEEvPvmDpT_, symObjAddr: 0x1AB0, symBinAddr: 0x1000029F0, symSize: 0x20 }
  - { offsetInCU: 0x8F23, offset: 0x8F23, size: 0x8, addend: 0x0, symName: __ZNSt3__124__libcpp_operator_deleteB7v160006IJPvEEEvDpT_, symObjAddr: 0x1AD0, symBinAddr: 0x100002A10, symSize: 0x20 }
  - { offsetInCU: 0x8F58, offset: 0x8F58, size: 0x8, addend: 0x0, symName: __ZNSt3__118__debug_db_erase_cB7v160006INS_12__hash_tableINS_17__hash_value_typeINS_12basic_stringIcNS_11char_traitsIcEENS_9allocatorIcEEEENS_5arrayIdLm3EEEEENS_22__unordered_map_hasherIS8_SB_NS_4hashIS8_EENS_8equal_toIS8_EELb1EEENS_21__unordered_map_equalIS8_SB_SG_SE_Lb1EEENS6_ISB_EEEEEEvPT_, symObjAddr: 0x1CA0, symBinAddr: 0x100002BE0, symSize: 0x10 }
  - { offsetInCU: 0x9551, offset: 0x9551, size: 0x8, addend: 0x0, symName: __ZNSt3__19use_facetB7v160006INS_5ctypeIcEEEERKT_RKNS_6localeE, symObjAddr: 0x2120, symBinAddr: 0x100003060, symSize: 0x30 }
  - { offsetInCU: 0x9931, offset: 0x9931, size: 0x8, addend: 0x0, symName: __ZNSt3__116__pad_and_outputB7v160006IcNS_11char_traitsIcEEEENS_19ostreambuf_iteratorIT_T0_EES6_PKS4_S8_S8_RNS_8ios_baseES4_, symObjAddr: 0x23D0, symBinAddr: 0x100003310, symSize: 0x220 }
  - { offsetInCU: 0x9A01, offset: 0x9A01, size: 0x8, addend: 0x0, symName: __ZNSt3__119__debug_db_insert_cB7v160006INS_12basic_stringIcNS_11char_traitsIcEENS_9allocatorIcEEEEEEvPT_, symObjAddr: 0x2830, symBinAddr: 0x100003770, symSize: 0x10 }
  - { offsetInCU: 0x9A32, offset: 0x9A32, size: 0x8, addend: 0x0, symName: __ZNSt3__112__to_addressB7v160006IKcEEPT_S3_, symObjAddr: 0x28D0, symBinAddr: 0x100003810, symSize: 0x10 }
  - { offsetInCU: 0x9A9A, offset: 0x9A9A, size: 0x8, addend: 0x0, symName: __ZNSt3__118__constexpr_strlenB7v160006EPKc, symObjAddr: 0x2A80, symBinAddr: 0x1000039C0, symSize: 0x20 }
  - { offsetInCU: 0x9AC6, offset: 0x9AC6, size: 0x8, addend: 0x0, symName: __ZNSt3__117__libcpp_allocateB7v160006Emm, symObjAddr: 0x2E90, symBinAddr: 0x100003DD0, symSize: 0x20 }
  - { offsetInCU: 0x9B03, offset: 0x9B03, size: 0x8, addend: 0x0, symName: __ZNSt3__121__libcpp_operator_newB7v160006IJmEEEPvDpT_, symObjAddr: 0x2ED0, symBinAddr: 0x100003E10, symSize: 0x20 }
  - { offsetInCU: 0x9D3D, offset: 0x9D3D, size: 0x8, addend: 0x0, symName: __ZNSt3__125__debug_db_invalidate_allB7v160006INS_12basic_stringIcNS_11char_traitsIcEENS_9allocatorIcEEEEEEvPT_, symObjAddr: 0x3130, symBinAddr: 0x100004070, symSize: 0x10 }
  - { offsetInCU: 0x9DA1, offset: 0x9DA1, size: 0x8, addend: 0x0, symName: __ZNSt3__116__constrain_hashB7v160006Emm, symObjAddr: 0x34E0, symBinAddr: 0x100004420, symSize: 0x80 }
  - { offsetInCU: 0x9DDB, offset: 0x9DDB, size: 0x8, addend: 0x0, symName: __ZNSt3__116__do_string_hashB7v160006IPKcEEmT_S3_, symObjAddr: 0x3710, symBinAddr: 0x100004650, symSize: 0x40 }
  - { offsetInCU: 0x9E21, offset: 0x9E21, size: 0x8, addend: 0x0, symName: __ZNSt3__110__loadwordB7v160006ImEET_PKv, symObjAddr: 0x4050, symBinAddr: 0x100004F90, symSize: 0x20 }
  - { offsetInCU: 0x9E64, offset: 0x9E64, size: 0x8, addend: 0x0, symName: __ZNSt3__14swapB7v160006ImEEvRT_S2_, symObjAddr: 0x4210, symBinAddr: 0x100005150, symSize: 0x40 }
  - { offsetInCU: 0x9EB5, offset: 0x9EB5, size: 0x8, addend: 0x0, symName: __ZNSt3__110__loadwordB7v160006IjEET_PKv, symObjAddr: 0x42A0, symBinAddr: 0x1000051E0, symSize: 0x20 }
  - { offsetInCU: 0x9EF8, offset: 0x9EF8, size: 0x8, addend: 0x0, symName: __ZNSt3__1eqB7v160006INS_9allocatorIcEEEEbRKNS_12basic_stringIcNS_11char_traitsIcEET_EES9_, symObjAddr: 0x4580, symBinAddr: 0x1000054C0, symSize: 0x110 }
  - { offsetInCU: 0x9F6B, offset: 0x9F6B, size: 0x8, addend: 0x0, symName: __ZNSt3__118__constexpr_memcmpB7v160006IcEEiPKT_S3_m, symObjAddr: 0x4700, symBinAddr: 0x100005640, symSize: 0x30 }
  - { offsetInCU: 0x9FBC, offset: 0x9FBC, size: 0x8, addend: 0x0, symName: __ZNSt3__1neB7v160006ERKNS_15__hash_iteratorIPNS_11__hash_nodeINS_17__hash_value_typeINS_12basic_stringIcNS_11char_traitsIcEENS_9allocatorIcEEEENS_5arrayIdLm3EEEEEPvEEEESH_, symObjAddr: 0x4770, symBinAddr: 0x1000056B0, symSize: 0x30 }
  - { offsetInCU: 0x9FF9, offset: 0x9FF9, size: 0x8, addend: 0x0, symName: __ZNSt3__1eqB7v160006ERKNS_15__hash_iteratorIPNS_11__hash_nodeINS_17__hash_value_typeINS_12basic_stringIcNS_11char_traitsIcEENS_9allocatorIcEEEENS_5arrayIdLm3EEEEEPvEEEESH_, symObjAddr: 0x47A0, symBinAddr: 0x1000056E0, symSize: 0x30 }
  - { offsetInCU: 0xA0BA, offset: 0xA0BA, size: 0x8, addend: 0x0, symName: __ZNSt3__13maxB7v160006ImEERKT_S3_S3_, symObjAddr: 0x5450, symBinAddr: 0x100006390, symSize: 0x30 }
  - { offsetInCU: 0xA0FD, offset: 0xA0FD, size: 0x8, addend: 0x0, symName: __ZNSt3__116__is_hash_power2B7v160006Em, symObjAddr: 0x5480, symBinAddr: 0x1000063C0, symSize: 0x40 }
  - { offsetInCU: 0xA129, offset: 0xA129, size: 0x8, addend: 0x0, symName: __ZNSt3__116__next_hash_pow2B7v160006Em, symObjAddr: 0x59C0, symBinAddr: 0x100006900, symSize: 0x60 }
  - { offsetInCU: 0xA155, offset: 0xA155, size: 0x8, addend: 0x0, symName: __ZNSt3__125__debug_db_invalidate_allB7v160006INS_12__hash_tableINS_17__hash_value_typeINS_12basic_stringIcNS_11char_traitsIcEENS_9allocatorIcEEEENS_5arrayIdLm3EEEEENS_22__unordered_map_hasherIS8_SB_NS_4hashIS8_EENS_8equal_toIS8_EELb1EEENS_21__unordered_map_equalIS8_SB_SG_SE_Lb1EEENS6_ISB_EEEEEEvPT_, symObjAddr: 0x5A20, symBinAddr: 0x100006960, symSize: 0x10 }
  - { offsetInCU: 0xA1A2, offset: 0xA1A2, size: 0x8, addend: 0x0, symName: __ZNSt3__112__libcpp_clzB7v160006Em, symObjAddr: 0x5BB0, symBinAddr: 0x100006AF0, symSize: 0x20 }
  - { offsetInCU: 0xA1CE, offset: 0xA1CE, size: 0x8, addend: 0x0, symName: __ZNSt3__13maxB7v160006ImNS_6__lessImmEEEERKT_S5_S5_T0_, symObjAddr: 0x5BD0, symBinAddr: 0x100006B10, symSize: 0x50 }
  - { offsetInCU: 0xA281, offset: 0xA281, size: 0x8, addend: 0x0, symName: __ZNSt3__1neB7v160006ERKNS_21__hash_const_iteratorIPNS_11__hash_nodeINS_17__hash_value_typeINS_12basic_stringIcNS_11char_traitsIcEENS_9allocatorIcEEEENS_5arrayIdLm3EEEEEPvEEEESH_, symObjAddr: 0x65E0, symBinAddr: 0x100007520, symSize: 0x30 }
  - { offsetInCU: 0xA2BE, offset: 0xA2BE, size: 0x8, addend: 0x0, symName: __ZNSt3__1eqB7v160006ERKNS_21__hash_const_iteratorIPNS_11__hash_nodeINS_17__hash_value_typeINS_12basic_stringIcNS_11char_traitsIcEENS_9allocatorIcEEEENS_5arrayIdLm3EEEEEPvEEEESH_, symObjAddr: 0x6610, symBinAddr: 0x100007550, symSize: 0x30 }
  - { offsetInCU: 0xA380, offset: 0xA380, size: 0x8, addend: 0x0, symName: __ZSt28__throw_bad_array_new_lengthB7v160006v, symObjAddr: 0x2E50, symBinAddr: 0x100003D90, symSize: 0x40 }
  - { offsetInCU: 0xCEC0, offset: 0xCEC0, size: 0x8, addend: 0x0, symName: __ZNSt3__113unordered_mapINS_12basic_stringIcNS_11char_traitsIcEENS_9allocatorIcEEEENS_5arrayIdLm3EEENS_4hashIS6_EENS_8equal_toIS6_EENS4_INS_4pairIKS6_S8_EEEEEC1B7v160006Ev, symObjAddr: 0x0, symBinAddr: 0x100000F40, symSize: 0x20 }
  - { offsetInCU: 0xCEEA, offset: 0xCEEA, size: 0x8, addend: 0x0, symName: __ZNSt3__113unordered_mapINS_12basic_stringIcNS_11char_traitsIcEENS_9allocatorIcEEEENS_5arrayIdLm3EEENS_4hashIS6_EENS_8equal_toIS6_EENS4_INS_4pairIKS6_S8_EEEEED1B7v160006Ev, symObjAddr: 0x20, symBinAddr: 0x100000F60, symSize: 0x20 }
  - { offsetInCU: 0xCF14, offset: 0xCF14, size: 0x8, addend: 0x0, symName: _main, symObjAddr: 0x40, symBinAddr: 0x100000F80, symSize: 0x1B0 }
  - { offsetInCU: 0xCF3D, offset: 0xCF3D, size: 0x8, addend: 0x0, symName: __Z11displayMenuv, symObjAddr: 0x1F0, symBinAddr: 0x100001130, symSize: 0x130 }
  - { offsetInCU: 0xCF57, offset: 0xCF57, size: 0x8, addend: 0x0, symName: __ZNSt3__113basic_ostreamIcNS_11char_traitsIcEEElsB7v160006EPFRS3_S4_E, symObjAddr: 0x4A0, symBinAddr: 0x1000013E0, symSize: 0x20 }
  - { offsetInCU: 0xCF8A, offset: 0xCF8A, size: 0x8, addend: 0x0, symName: __Z8addStockv, symObjAddr: 0x510, symBinAddr: 0x100001450, symSize: 0x230 }
  - { offsetInCU: 0xCFC1, offset: 0xCFC1, size: 0x8, addend: 0x0, symName: __Z11deleteStockv, symObjAddr: 0x740, symBinAddr: 0x100001680, symSize: 0x160 }
  - { offsetInCU: 0xCFE9, offset: 0xCFE9, size: 0x8, addend: 0x0, symName: __Z13viewPortfoliov, symObjAddr: 0x8A0, symBinAddr: 0x1000017E0, symSize: 0x1E0 }
  - { offsetInCU: 0xD056, offset: 0xD056, size: 0x8, addend: 0x0, symName: __Z23calculatePortfolioValuev, symObjAddr: 0xAC0, symBinAddr: 0x100001A00, symSize: 0xB0 }
  - { offsetInCU: 0xD0C8, offset: 0xD0C8, size: 0x8, addend: 0x0, symName: __ZNSt3__112basic_stringIcNS_11char_traitsIcEENS_9allocatorIcEEEC1B7v160006Ev, symObjAddr: 0xB70, symBinAddr: 0x100001AB0, symSize: 0x20 }
  - { offsetInCU: 0xD0F2, offset: 0xD0F2, size: 0x8, addend: 0x0, symName: __ZNSt3__113unordered_mapINS_12basic_stringIcNS_11char_traitsIcEENS_9allocatorIcEEEENS_5arrayIdLm3EEENS_4hashIS6_EENS_8equal_toIS6_EENS4_INS_4pairIKS6_S8_EEEEE4findB7v160006ERSE_, symObjAddr: 0xEA0, symBinAddr: 0x100001DE0, symSize: 0x40 }
  - { offsetInCU: 0xD127, offset: 0xD127, size: 0x8, addend: 0x0, symName: __ZNSt3__113unordered_mapINS_12basic_stringIcNS_11char_traitsIcEENS_9allocatorIcEEEENS_5arrayIdLm3EEENS_4hashIS6_EENS_8equal_toIS6_EENS4_INS_4pairIKS6_S8_EEEEE3endB7v160006Ev, symObjAddr: 0xEE0, symBinAddr: 0x100001E20, symSize: 0x30 }
  - { offsetInCU: 0xD14D, offset: 0xD14D, size: 0x8, addend: 0x0, symName: __ZNSt3__15arrayIdLm3EEixB7v160006Em, symObjAddr: 0xF10, symBinAddr: 0x100001E50, symSize: 0x20 }
  - { offsetInCU: 0xD181, offset: 0xD181, size: 0x8, addend: 0x0, symName: __ZNSt3__113unordered_mapINS_12basic_stringIcNS_11char_traitsIcEENS_9allocatorIcEEEENS_5arrayIdLm3EEENS_4hashIS6_EENS_8equal_toIS6_EENS4_INS_4pairIKS6_S8_EEEEEixERSE_, symObjAddr: 0xF30, symBinAddr: 0x100001E70, symSize: 0x140 }
  - { offsetInCU: 0xD1E6, offset: 0xD1E6, size: 0x8, addend: 0x0, symName: __ZNSt3__113unordered_mapINS_12basic_stringIcNS_11char_traitsIcEENS_9allocatorIcEEEENS_5arrayIdLm3EEENS_4hashIS6_EENS_8equal_toIS6_EENS4_INS_4pairIKS6_S8_EEEEE5eraseB7v160006ERSE_, symObjAddr: 0x1080, symBinAddr: 0x100001FC0, symSize: 0x30 }
  - { offsetInCU: 0xD21B, offset: 0xD21B, size: 0x8, addend: 0x0, symName: __ZNKSt3__113unordered_mapINS_12basic_stringIcNS_11char_traitsIcEENS_9allocatorIcEEEENS_5arrayIdLm3EEENS_4hashIS6_EENS_8equal_toIS6_EENS4_INS_4pairIKS6_S8_EEEEE5emptyB7v160006Ev, symObjAddr: 0x10B0, symBinAddr: 0x100001FF0, symSize: 0x30 }
  - { offsetInCU: 0xD241, offset: 0xD241, size: 0x8, addend: 0x0, symName: __ZNSt3__113unordered_mapINS_12basic_stringIcNS_11char_traitsIcEENS_9allocatorIcEEEENS_5arrayIdLm3EEENS_4hashIS6_EENS_8equal_toIS6_EENS4_INS_4pairIKS6_S8_EEEEE5beginB7v160006Ev, symObjAddr: 0x10E0, symBinAddr: 0x100002020, symSize: 0x30 }
  - { offsetInCU: 0xD267, offset: 0xD267, size: 0x8, addend: 0x0, symName: __ZNSt3__125__hash_map_const_iteratorINS_21__hash_const_iteratorIPNS_11__hash_nodeINS_17__hash_value_typeINS_12basic_stringIcNS_11char_traitsIcEENS_9allocatorIcEEEENS_5arrayIdLm3EEEEEPvEEEEEC1B7v160006ENS_19__hash_map_iteratorINS_15__hash_iteratorISF_EEEE, symObjAddr: 0x1110, symBinAddr: 0x100002050, symSize: 0x30 }
  - { offsetInCU: 0xD2A0, offset: 0xD2A0, size: 0x8, addend: 0x0, symName: __ZNKSt3__125__hash_map_const_iteratorINS_21__hash_const_iteratorIPNS_11__hash_nodeINS_17__hash_value_typeINS_12basic_stringIcNS_11char_traitsIcEENS_9allocatorIcEEEENS_5arrayIdLm3EEEEEPvEEEEEptB7v160006Ev, symObjAddr: 0x1170, symBinAddr: 0x1000020B0, symSize: 0x30 }
  - { offsetInCU: 0xD2C6, offset: 0xD2C6, size: 0x8, addend: 0x0, symName: __ZNKSt3__15arrayIdLm3EEixB7v160006Em, symObjAddr: 0x11F0, symBinAddr: 0x100002130, symSize: 0x20 }
  - { offsetInCU: 0xD2FA, offset: 0xD2FA, size: 0x8, addend: 0x0, symName: __ZNSt3__125__hash_map_const_iteratorINS_21__hash_const_iteratorIPNS_11__hash_nodeINS_17__hash_value_typeINS_12basic_stringIcNS_11char_traitsIcEENS_9allocatorIcEEEENS_5arrayIdLm3EEEEEPvEEEEEppB7v160006Ei, symObjAddr: 0x1210, symBinAddr: 0x100002150, symSize: 0x30 }
  - { offsetInCU: 0xD33B, offset: 0xD33B, size: 0x8, addend: 0x0, symName: __ZNSt3__113unordered_mapINS_12basic_stringIcNS_11char_traitsIcEENS_9allocatorIcEEEENS_5arrayIdLm3EEENS_4hashIS6_EENS_8equal_toIS6_EENS4_INS_4pairIKS6_S8_EEEEEC2B7v160006Ev, symObjAddr: 0x1240, symBinAddr: 0x100002180, symSize: 0x60 }
  - { offsetInCU: 0xD365, offset: 0xD365, size: 0x8, addend: 0x0, symName: __ZNSt3__112__hash_tableINS_17__hash_value_typeINS_12basic_stringIcNS_11char_traitsIcEENS_9allocatorIcEEEENS_5arrayIdLm3EEEEENS_22__unordered_map_hasherIS7_SA_NS_4hashIS7_EENS_8equal_toIS7_EELb1EEENS_21__unordered_map_equalIS7_SA_SF_SD_Lb1EEENS5_ISA_EEEC1Ev, symObjAddr: 0x12A0, symBinAddr: 0x1000021E0, symSize: 0x20 }
  - { offsetInCU: 0xD391, offset: 0xD391, size: 0x8, addend: 0x0, symName: __ZNSt3__112__hash_tableINS_17__hash_value_typeINS_12basic_stringIcNS_11char_traitsIcEENS_9allocatorIcEEEENS_5arrayIdLm3EEEEENS_22__unordered_map_hasherIS7_SA_NS_4hashIS7_EENS_8equal_toIS7_EELb1EEENS_21__unordered_map_equalIS7_SA_SF_SD_Lb1EEENS5_ISA_EEED1Ev, symObjAddr: 0x12D0, symBinAddr: 0x100002210, symSize: 0x20 }
  - { offsetInCU: 0xD3BD, offset: 0xD3BD, size: 0x8, addend: 0x0, symName: __ZNSt3__112__hash_tableINS_17__hash_value_typeINS_12basic_stringIcNS_11char_traitsIcEENS_9allocatorIcEEEENS_5arrayIdLm3EEEEENS_22__unordered_map_hasherIS7_SA_NS_4hashIS7_EENS_8equal_toIS7_EELb1EEENS_21__unordered_map_equalIS7_SA_SF_SD_Lb1EEENS5_ISA_EEEC2Ev, symObjAddr: 0x12F0, symBinAddr: 0x100002230, symSize: 0xB0 }
  - { offsetInCU: 0xD3E9, offset: 0xD3E9, size: 0x8, addend: 0x0, symName: __ZNSt3__110unique_ptrIA_PNS_16__hash_node_baseIPNS_11__hash_nodeINS_17__hash_value_typeINS_12basic_stringIcNS_11char_traitsIcEENS_9allocatorIcEEEENS_5arrayIdLm3EEEEEPvEEEENS_25__bucket_list_deallocatorINS7_ISH_EEEEEC1B7v160006ILb1EvEEv, symObjAddr: 0x13A0, symBinAddr: 0x1000022E0, symSize: 0x20 }
  - { offsetInCU: 0xD41E, offset: 0xD41E, size: 0x8, addend: 0x0, symName: __ZNSt3__117__compressed_pairINS_16__hash_node_baseIPNS_11__hash_nodeINS_17__hash_value_typeINS_12basic_stringIcNS_11char_traitsIcEENS_9allocatorIcEEEENS_5arrayIdLm3EEEEEPvEEEENS7_ISE_EEEC1B7v160006ILb1EvEEv, symObjAddr: 0x13C0, symBinAddr: 0x100002300, symSize: 0x20 }
  - { offsetInCU: 0xD45D, offset: 0xD45D, size: 0x8, addend: 0x0, symName: __ZNSt3__117__compressed_pairImNS_22__unordered_map_hasherINS_12basic_stringIcNS_11char_traitsIcEENS_9allocatorIcEEEENS_17__hash_value_typeIS7_NS_5arrayIdLm3EEEEENS_4hashIS7_EENS_8equal_toIS7_EELb1EEEEC1B7v160006IiNS_18__default_init_tagEEEOT_OT0_, symObjAddr: 0x13E0, symBinAddr: 0x100002320, symSize: 0x30 }
  - { offsetInCU: 0xD4BA, offset: 0xD4BA, size: 0x8, addend: 0x0, symName: __ZNSt3__117__compressed_pairIfNS_21__unordered_map_equalINS_12basic_stringIcNS_11char_traitsIcEENS_9allocatorIcEEEENS_17__hash_value_typeIS7_NS_5arrayIdLm3EEEEENS_8equal_toIS7_EENS_4hashIS7_EELb1EEEEC1B7v160006IfNS_18__default_init_tagEEEOT_OT0_, symObjAddr: 0x1410, symBinAddr: 0x100002350, symSize: 0x30 }
  - { offsetInCU: 0xD512, offset: 0xD512, size: 0x8, addend: 0x0, symName: __ZNSt3__110unique_ptrIA_PNS_16__hash_node_baseIPNS_11__hash_nodeINS_17__hash_value_typeINS_12basic_stringIcNS_11char_traitsIcEENS_9allocatorIcEEEENS_5arrayIdLm3EEEEEPvEEEENS_25__bucket_list_deallocatorINS7_ISH_EEEEED1B7v160006Ev, symObjAddr: 0x1440, symBinAddr: 0x100002380, symSize: 0x20 }
  - { offsetInCU: 0xD53C, offset: 0xD53C, size: 0x8, addend: 0x0, symName: __ZNSt3__110unique_ptrIA_PNS_16__hash_node_baseIPNS_11__hash_nodeINS_17__hash_value_typeINS_12basic_stringIcNS_11char_traitsIcEENS_9allocatorIcEEEENS_5arrayIdLm3EEEEEPvEEEENS_25__bucket_list_deallocatorINS7_ISH_EEEEEC2B7v160006ILb1EvEEv, symObjAddr: 0x1460, symBinAddr: 0x1000023A0, symSize: 0x40 }
  - { offsetInCU: 0xD576, offset: 0xD576, size: 0x8, addend: 0x0, symName: __ZNSt3__117__compressed_pairIPPNS_16__hash_node_baseIPNS_11__hash_nodeINS_17__hash_value_typeINS_12basic_stringIcNS_11char_traitsIcEENS_9allocatorIcEEEENS_5arrayIdLm3EEEEEPvEEEENS_25__bucket_list_deallocatorINS7_ISH_EEEEEC1B7v160006INS_16__value_init_tagESO_EEOT_OT0_, symObjAddr: 0x14A0, symBinAddr: 0x1000023E0, symSize: 0x30 }
  - { offsetInCU: 0xD5CE, offset: 0xD5CE, size: 0x8, addend: 0x0, symName: __ZNSt3__117__compressed_pairIPPNS_16__hash_node_baseIPNS_11__hash_nodeINS_17__hash_value_typeINS_12basic_stringIcNS_11char_traitsIcEENS_9allocatorIcEEEENS_5arrayIdLm3EEEEEPvEEEENS_25__bucket_list_deallocatorINS7_ISH_EEEEEC2B7v160006INS_16__value_init_tagESO_EEOT_OT0_, symObjAddr: 0x14D0, symBinAddr: 0x100002410, symSize: 0x40 }
  - { offsetInCU: 0xD626, offset: 0xD626, size: 0x8, addend: 0x0, symName: __ZNSt3__122__compressed_pair_elemIPPNS_16__hash_node_baseIPNS_11__hash_nodeINS_17__hash_value_typeINS_12basic_stringIcNS_11char_traitsIcEENS_9allocatorIcEEEENS_5arrayIdLm3EEEEEPvEEEELi0ELb0EEC2B7v160006ENS_16__value_init_tagE, symObjAddr: 0x1510, symBinAddr: 0x100002450, symSize: 0x20 }
  - { offsetInCU: 0xD65B, offset: 0xD65B, size: 0x8, addend: 0x0, symName: __ZNSt3__122__compressed_pair_elemINS_25__bucket_list_deallocatorINS_9allocatorIPNS_16__hash_node_baseIPNS_11__hash_nodeINS_17__hash_value_typeINS_12basic_stringIcNS_11char_traitsIcEENS2_IcEEEENS_5arrayIdLm3EEEEEPvEEEEEEEELi1ELb0EEC2B7v160006ENS_16__value_init_tagE, symObjAddr: 0x1530, symBinAddr: 0x100002470, symSize: 0x20 }
  - { offsetInCU: 0xD690, offset: 0xD690, size: 0x8, addend: 0x0, symName: __ZNSt3__125__bucket_list_deallocatorINS_9allocatorIPNS_16__hash_node_baseIPNS_11__hash_nodeINS_17__hash_value_typeINS_12basic_stringIcNS_11char_traitsIcEENS1_IcEEEENS_5arrayIdLm3EEEEEPvEEEEEEEC1B7v160006Ev, symObjAddr: 0x1550, symBinAddr: 0x100002490, symSize: 0x20 }
  - { offsetInCU: 0xD6BA, offset: 0xD6BA, size: 0x8, addend: 0x0, symName: __ZNSt3__125__bucket_list_deallocatorINS_9allocatorIPNS_16__hash_node_baseIPNS_11__hash_nodeINS_17__hash_value_typeINS_12basic_stringIcNS_11char_traitsIcEENS1_IcEEEENS_5arrayIdLm3EEEEEPvEEEEEEEC2B7v160006Ev, symObjAddr: 0x1570, symBinAddr: 0x1000024B0, symSize: 0x30 }
  - { offsetInCU: 0xD6E4, offset: 0xD6E4, size: 0x8, addend: 0x0, symName: __ZNSt3__117__compressed_pairImNS_9allocatorIPNS_16__hash_node_baseIPNS_11__hash_nodeINS_17__hash_value_typeINS_12basic_stringIcNS_11char_traitsIcEENS1_IcEEEENS_5arrayIdLm3EEEEEPvEEEEEEEC1B7v160006IiNS_18__default_init_tagEEEOT_OT0_, symObjAddr: 0x15A0, symBinAddr: 0x1000024E0, symSize: 0x30 }
  - { offsetInCU: 0xD73C, offset: 0xD73C, size: 0x8, addend: 0x0, symName: __ZNSt3__117__compressed_pairImNS_9allocatorIPNS_16__hash_node_baseIPNS_11__hash_nodeINS_17__hash_value_typeINS_12basic_stringIcNS_11char_traitsIcEENS1_IcEEEENS_5arrayIdLm3EEEEEPvEEEEEEEC2B7v160006IiNS_18__default_init_tagEEEOT_OT0_, symObjAddr: 0x15D0, symBinAddr: 0x100002510, symSize: 0x40 }
  - { offsetInCU: 0xD794, offset: 0xD794, size: 0x8, addend: 0x0, symName: __ZNSt3__122__compressed_pair_elemImLi0ELb0EEC2B7v160006IivEEOT_, symObjAddr: 0x1610, symBinAddr: 0x100002550, symSize: 0x20 }
  - { offsetInCU: 0xD7D6, offset: 0xD7D6, size: 0x8, addend: 0x0, symName: __ZNSt3__122__compressed_pair_elemINS_9allocatorIPNS_16__hash_node_baseIPNS_11__hash_nodeINS_17__hash_value_typeINS_12basic_stringIcNS_11char_traitsIcEENS1_IcEEEENS_5arrayIdLm3EEEEEPvEEEEEELi1ELb1EEC2B7v160006ENS_18__default_init_tagE, symObjAddr: 0x1630, symBinAddr: 0x100002570, symSize: 0x20 }
  - { offsetInCU: 0xD80B, offset: 0xD80B, size: 0x8, addend: 0x0, symName: __ZNSt3__19allocatorIPNS_16__hash_node_baseIPNS_11__hash_nodeINS_17__hash_value_typeINS_12basic_stringIcNS_11char_traitsIcEENS0_IcEEEENS_5arrayIdLm3EEEEEPvEEEEEC2B7v160006Ev, symObjAddr: 0x1650, symBinAddr: 0x100002590, symSize: 0x20 }
  - { offsetInCU: 0xD835, offset: 0xD835, size: 0x8, addend: 0x0, symName: __ZNSt3__116__non_trivial_ifILb1ENS_9allocatorIPNS_16__hash_node_baseIPNS_11__hash_nodeINS_17__hash_value_typeINS_12basic_stringIcNS_11char_traitsIcEENS1_IcEEEENS_5arrayIdLm3EEEEEPvEEEEEEEC2B7v160006Ev, symObjAddr: 0x1670, symBinAddr: 0x1000025B0, symSize: 0x10 }
  - { offsetInCU: 0xD85F, offset: 0xD85F, size: 0x8, addend: 0x0, symName: __ZNSt3__117__compressed_pairINS_16__hash_node_baseIPNS_11__hash_nodeINS_17__hash_value_typeINS_12basic_stringIcNS_11char_traitsIcEENS_9allocatorIcEEEENS_5arrayIdLm3EEEEEPvEEEENS7_ISE_EEEC2B7v160006ILb1EvEEv, symObjAddr: 0x1680, symBinAddr: 0x1000025C0, symSize: 0x30 }
  - { offsetInCU: 0xD894, offset: 0xD894, size: 0x8, addend: 0x0, symName: __ZNSt3__122__compressed_pair_elemINS_16__hash_node_baseIPNS_11__hash_nodeINS_17__hash_value_typeINS_12basic_stringIcNS_11char_traitsIcEENS_9allocatorIcEEEENS_5arrayIdLm3EEEEEPvEEEELi0ELb0EEC2B7v160006ENS_16__value_init_tagE, symObjAddr: 0x16B0, symBinAddr: 0x1000025F0, symSize: 0x20 }
  - { offsetInCU: 0xD8C9, offset: 0xD8C9, size: 0x8, addend: 0x0, symName: __ZNSt3__122__compressed_pair_elemINS_9allocatorINS_11__hash_nodeINS_17__hash_value_typeINS_12basic_stringIcNS_11char_traitsIcEENS1_IcEEEENS_5arrayIdLm3EEEEEPvEEEELi1ELb1EEC2B7v160006ENS_16__value_init_tagE, symObjAddr: 0x16D0, symBinAddr: 0x100002610, symSize: 0x20 }
  - { offsetInCU: 0xD8FE, offset: 0xD8FE, size: 0x8, addend: 0x0, symName: __ZNSt3__116__hash_node_baseIPNS_11__hash_nodeINS_17__hash_value_typeINS_12basic_stringIcNS_11char_traitsIcEENS_9allocatorIcEEEENS_5arrayIdLm3EEEEEPvEEEC1B7v160006Ev, symObjAddr: 0x16F0, symBinAddr: 0x100002630, symSize: 0x20 }
  - { offsetInCU: 0xD928, offset: 0xD928, size: 0x8, addend: 0x0, symName: __ZNSt3__116__hash_node_baseIPNS_11__hash_nodeINS_17__hash_value_typeINS_12basic_stringIcNS_11char_traitsIcEENS_9allocatorIcEEEENS_5arrayIdLm3EEEEEPvEEEC2B7v160006Ev, symObjAddr: 0x1710, symBinAddr: 0x100002650, symSize: 0x20 }
  - { offsetInCU: 0xD952, offset: 0xD952, size: 0x8, addend: 0x0, symName: __ZNSt3__19allocatorINS_11__hash_nodeINS_17__hash_value_typeINS_12basic_stringIcNS_11char_traitsIcEENS0_IcEEEENS_5arrayIdLm3EEEEEPvEEEC2B7v160006Ev, symObjAddr: 0x1730, symBinAddr: 0x100002670, symSize: 0x20 }
  - { offsetInCU: 0xD97C, offset: 0xD97C, size: 0x8, addend: 0x0, symName: __ZNSt3__116__non_trivial_ifILb1ENS_9allocatorINS_11__hash_nodeINS_17__hash_value_typeINS_12basic_stringIcNS_11char_traitsIcEENS1_IcEEEENS_5arrayIdLm3EEEEEPvEEEEEC2B7v160006Ev, symObjAddr: 0x1750, symBinAddr: 0x100002690, symSize: 0x10 }
  - { offsetInCU: 0xD9A6, offset: 0xD9A6, size: 0x8, addend: 0x0, symName: __ZNSt3__117__compressed_pairImNS_22__unordered_map_hasherINS_12basic_stringIcNS_11char_traitsIcEENS_9allocatorIcEEEENS_17__hash_value_typeIS7_NS_5arrayIdLm3EEEEENS_4hashIS7_EENS_8equal_toIS7_EELb1EEEEC2B7v160006IiNS_18__default_init_tagEEEOT_OT0_, symObjAddr: 0x1760, symBinAddr: 0x1000026A0, symSize: 0x40 }
  - { offsetInCU: 0xD9FE, offset: 0xD9FE, size: 0x8, addend: 0x0, symName: __ZNSt3__122__compressed_pair_elemINS_22__unordered_map_hasherINS_12basic_stringIcNS_11char_traitsIcEENS_9allocatorIcEEEENS_17__hash_value_typeIS7_NS_5arrayIdLm3EEEEENS_4hashIS7_EENS_8equal_toIS7_EELb1EEELi1ELb1EEC2B7v160006ENS_18__default_init_tagE, symObjAddr: 0x17A0, symBinAddr: 0x1000026E0, symSize: 0x20 }
  - { offsetInCU: 0xDA33, offset: 0xDA33, size: 0x8, addend: 0x0, symName: __ZNSt3__122__unordered_map_hasherINS_12basic_stringIcNS_11char_traitsIcEENS_9allocatorIcEEEENS_17__hash_value_typeIS6_NS_5arrayIdLm3EEEEENS_4hashIS6_EENS_8equal_toIS6_EELb1EEC2B7v160006Ev, symObjAddr: 0x17C0, symBinAddr: 0x100002700, symSize: 0x10 }
  - { offsetInCU: 0xDA5D, offset: 0xDA5D, size: 0x8, addend: 0x0, symName: __ZNSt3__117__compressed_pairIfNS_21__unordered_map_equalINS_12basic_stringIcNS_11char_traitsIcEENS_9allocatorIcEEEENS_17__hash_value_typeIS7_NS_5arrayIdLm3EEEEENS_8equal_toIS7_EENS_4hashIS7_EELb1EEEEC2B7v160006IfNS_18__default_init_tagEEEOT_OT0_, symObjAddr: 0x17D0, symBinAddr: 0x100002710, symSize: 0x40 }
  - { offsetInCU: 0xDAB5, offset: 0xDAB5, size: 0x8, addend: 0x0, symName: __ZNSt3__122__compressed_pair_elemIfLi0ELb0EEC2B7v160006IfvEEOT_, symObjAddr: 0x1810, symBinAddr: 0x100002750, symSize: 0x20 }
  - { offsetInCU: 0xDAF7, offset: 0xDAF7, size: 0x8, addend: 0x0, symName: __ZNSt3__122__compressed_pair_elemINS_21__unordered_map_equalINS_12basic_stringIcNS_11char_traitsIcEENS_9allocatorIcEEEENS_17__hash_value_typeIS7_NS_5arrayIdLm3EEEEENS_8equal_toIS7_EENS_4hashIS7_EELb1EEELi1ELb1EEC2B7v160006ENS_18__default_init_tagE, symObjAddr: 0x1830, symBinAddr: 0x100002770, symSize: 0x20 }
  - { offsetInCU: 0xDB2C, offset: 0xDB2C, size: 0x8, addend: 0x0, symName: __ZNSt3__121__unordered_map_equalINS_12basic_stringIcNS_11char_traitsIcEENS_9allocatorIcEEEENS_17__hash_value_typeIS6_NS_5arrayIdLm3EEEEENS_8equal_toIS6_EENS_4hashIS6_EELb1EEC2B7v160006Ev, symObjAddr: 0x1850, symBinAddr: 0x100002790, symSize: 0x10 }
  - { offsetInCU: 0xDB56, offset: 0xDB56, size: 0x8, addend: 0x0, symName: __ZNSt3__110unique_ptrIA_PNS_16__hash_node_baseIPNS_11__hash_nodeINS_17__hash_value_typeINS_12basic_stringIcNS_11char_traitsIcEENS_9allocatorIcEEEENS_5arrayIdLm3EEEEEPvEEEENS_25__bucket_list_deallocatorINS7_ISH_EEEEED2B7v160006Ev, symObjAddr: 0x1860, symBinAddr: 0x1000027A0, symSize: 0x20 }
  - { offsetInCU: 0xDB80, offset: 0xDB80, size: 0x8, addend: 0x0, symName: __ZNSt3__110unique_ptrIA_PNS_16__hash_node_baseIPNS_11__hash_nodeINS_17__hash_value_typeINS_12basic_stringIcNS_11char_traitsIcEENS_9allocatorIcEEEENS_5arrayIdLm3EEEEEPvEEEENS_25__bucket_list_deallocatorINS7_ISH_EEEEE5resetB7v160006EDn, symObjAddr: 0x1880, symBinAddr: 0x1000027C0, symSize: 0x60 }
  - { offsetInCU: 0xDBC1, offset: 0xDBC1, size: 0x8, addend: 0x0, symName: __ZNSt3__117__compressed_pairIPPNS_16__hash_node_baseIPNS_11__hash_nodeINS_17__hash_value_typeINS_12basic_stringIcNS_11char_traitsIcEENS_9allocatorIcEEEENS_5arrayIdLm3EEEEEPvEEEENS_25__bucket_list_deallocatorINS7_ISH_EEEEE5firstB7v160006Ev, symObjAddr: 0x18E0, symBinAddr: 0x100002820, symSize: 0x20 }
  - { offsetInCU: 0xDBE7, offset: 0xDBE7, size: 0x8, addend: 0x0, symName: __ZNSt3__117__compressed_pairIPPNS_16__hash_node_baseIPNS_11__hash_nodeINS_17__hash_value_typeINS_12basic_stringIcNS_11char_traitsIcEENS_9allocatorIcEEEENS_5arrayIdLm3EEEEEPvEEEENS_25__bucket_list_deallocatorINS7_ISH_EEEEE6secondB7v160006Ev, symObjAddr: 0x1900, symBinAddr: 0x100002840, symSize: 0x20 }
  - { offsetInCU: 0xDC0D, offset: 0xDC0D, size: 0x8, addend: 0x0, symName: __ZNSt3__125__bucket_list_deallocatorINS_9allocatorIPNS_16__hash_node_baseIPNS_11__hash_nodeINS_17__hash_value_typeINS_12basic_stringIcNS_11char_traitsIcEENS1_IcEEEENS_5arrayIdLm3EEEEEPvEEEEEEEclB7v160006EPSH_, symObjAddr: 0x1920, symBinAddr: 0x100002860, symSize: 0x50 }
  - { offsetInCU: 0xDC42, offset: 0xDC42, size: 0x8, addend: 0x0, symName: __ZNSt3__122__compressed_pair_elemIPPNS_16__hash_node_baseIPNS_11__hash_nodeINS_17__hash_value_typeINS_12basic_stringIcNS_11char_traitsIcEENS_9allocatorIcEEEENS_5arrayIdLm3EEEEEPvEEEELi0ELb0EE5__getB7v160006Ev, symObjAddr: 0x1970, symBinAddr: 0x1000028B0, symSize: 0x10 }
  - { offsetInCU: 0xDC68, offset: 0xDC68, size: 0x8, addend: 0x0, symName: __ZNSt3__122__compressed_pair_elemINS_25__bucket_list_deallocatorINS_9allocatorIPNS_16__hash_node_baseIPNS_11__hash_nodeINS_17__hash_value_typeINS_12basic_stringIcNS_11char_traitsIcEENS2_IcEEEENS_5arrayIdLm3EEEEEPvEEEEEEEELi1ELb0EE5__getB7v160006Ev, symObjAddr: 0x1980, symBinAddr: 0x1000028C0, symSize: 0x10 }
  - { offsetInCU: 0xDC8E, offset: 0xDC8E, size: 0x8, addend: 0x0, symName: __ZNSt3__116allocator_traitsINS_9allocatorIPNS_16__hash_node_baseIPNS_11__hash_nodeINS_17__hash_value_typeINS_12basic_stringIcNS_11char_traitsIcEENS1_IcEEEENS_5arrayIdLm3EEEEEPvEEEEEEE10deallocateB7v160006ERSI_PSH_m, symObjAddr: 0x1990, symBinAddr: 0x1000028D0, symSize: 0x30 }
  - { offsetInCU: 0xDCD0, offset: 0xDCD0, size: 0x8, addend: 0x0, symName: __ZNSt3__125__bucket_list_deallocatorINS_9allocatorIPNS_16__hash_node_baseIPNS_11__hash_nodeINS_17__hash_value_typeINS_12basic_stringIcNS_11char_traitsIcEENS1_IcEEEENS_5arrayIdLm3EEEEEPvEEEEEEE7__allocB7v160006Ev, symObjAddr: 0x19C0, symBinAddr: 0x100002900, symSize: 0x20 }
  - { offsetInCU: 0xDCF6, offset: 0xDCF6, size: 0x8, addend: 0x0, symName: __ZNSt3__125__bucket_list_deallocatorINS_9allocatorIPNS_16__hash_node_baseIPNS_11__hash_nodeINS_17__hash_value_typeINS_12basic_stringIcNS_11char_traitsIcEENS1_IcEEEENS_5arrayIdLm3EEEEEPvEEEEEEE4sizeB7v160006Ev, symObjAddr: 0x19E0, symBinAddr: 0x100002920, symSize: 0x20 }
  - { offsetInCU: 0xDD1C, offset: 0xDD1C, size: 0x8, addend: 0x0, symName: __ZNSt3__19allocatorIPNS_16__hash_node_baseIPNS_11__hash_nodeINS_17__hash_value_typeINS_12basic_stringIcNS_11char_traitsIcEENS0_IcEEEENS_5arrayIdLm3EEEEEPvEEEEE10deallocateB7v160006EPSG_m, symObjAddr: 0x1A00, symBinAddr: 0x100002940, symSize: 0x70 }
  - { offsetInCU: 0xDD5E, offset: 0xDD5E, size: 0x8, addend: 0x0, symName: __ZNSt3__117__compressed_pairImNS_9allocatorIPNS_16__hash_node_baseIPNS_11__hash_nodeINS_17__hash_value_typeINS_12basic_stringIcNS_11char_traitsIcEENS1_IcEEEENS_5arrayIdLm3EEEEEPvEEEEEEE6secondB7v160006Ev, symObjAddr: 0x1AF0, symBinAddr: 0x100002A30, symSize: 0x20 }
  - { offsetInCU: 0xDD84, offset: 0xDD84, size: 0x8, addend: 0x0, symName: __ZNSt3__122__compressed_pair_elemINS_9allocatorIPNS_16__hash_node_baseIPNS_11__hash_nodeINS_17__hash_value_typeINS_12basic_stringIcNS_11char_traitsIcEENS1_IcEEEENS_5arrayIdLm3EEEEEPvEEEEEELi1ELb1EE5__getB7v160006Ev, symObjAddr: 0x1B10, symBinAddr: 0x100002A50, symSize: 0x10 }
  - { offsetInCU: 0xDDAA, offset: 0xDDAA, size: 0x8, addend: 0x0, symName: __ZNSt3__117__compressed_pairImNS_9allocatorIPNS_16__hash_node_baseIPNS_11__hash_nodeINS_17__hash_value_typeINS_12basic_stringIcNS_11char_traitsIcEENS1_IcEEEENS_5arrayIdLm3EEEEEPvEEEEEEE5firstB7v160006Ev, symObjAddr: 0x1B20, symBinAddr: 0x100002A60, symSize: 0x20 }
  - { offsetInCU: 0xDDD0, offset: 0xDDD0, size: 0x8, addend: 0x0, symName: __ZNSt3__122__compressed_pair_elemImLi0ELb0EE5__getB7v160006Ev, symObjAddr: 0x1B40, symBinAddr: 0x100002A80, symSize: 0x10 }
  - { offsetInCU: 0xDDF6, offset: 0xDDF6, size: 0x8, addend: 0x0, symName: __ZNSt3__112__hash_tableINS_17__hash_value_typeINS_12basic_stringIcNS_11char_traitsIcEENS_9allocatorIcEEEENS_5arrayIdLm3EEEEENS_22__unordered_map_hasherIS7_SA_NS_4hashIS7_EENS_8equal_toIS7_EELb1EEENS_21__unordered_map_equalIS7_SA_SF_SD_Lb1EEENS5_ISA_EEED2Ev, symObjAddr: 0x1B50, symBinAddr: 0x100002A90, symSize: 0x80 }
  - { offsetInCU: 0xDE22, offset: 0xDE22, size: 0x8, addend: 0x0, symName: __ZNSt3__112__hash_tableINS_17__hash_value_typeINS_12basic_stringIcNS_11char_traitsIcEENS_9allocatorIcEEEENS_5arrayIdLm3EEEEENS_22__unordered_map_hasherIS7_SA_NS_4hashIS7_EENS_8equal_toIS7_EELb1EEENS_21__unordered_map_equalIS7_SA_SF_SD_Lb1EEENS5_ISA_EEE17__deallocate_nodeEPNS_16__hash_node_baseIPNS_11__hash_nodeISA_PvEEEE, symObjAddr: 0x1BD0, symBinAddr: 0x100002B10, symSize: 0xB0 }
  - { offsetInCU: 0xDE8C, offset: 0xDE8C, size: 0x8, addend: 0x0, symName: __ZNSt3__117__compressed_pairINS_16__hash_node_baseIPNS_11__hash_nodeINS_17__hash_value_typeINS_12basic_stringIcNS_11char_traitsIcEENS_9allocatorIcEEEENS_5arrayIdLm3EEEEEPvEEEENS7_ISE_EEE5firstB7v160006Ev, symObjAddr: 0x1C80, symBinAddr: 0x100002BC0, symSize: 0x20 }
  - { offsetInCU: 0xDEB2, offset: 0xDEB2, size: 0x8, addend: 0x0, symName: __ZNSt3__112__hash_tableINS_17__hash_value_typeINS_12basic_stringIcNS_11char_traitsIcEENS_9allocatorIcEEEENS_5arrayIdLm3EEEEENS_22__unordered_map_hasherIS7_SA_NS_4hashIS7_EENS_8equal_toIS7_EELb1EEENS_21__unordered_map_equalIS7_SA_SF_SD_Lb1EEENS5_ISA_EEE12__node_allocB7v160006Ev, symObjAddr: 0x1CB0, symBinAddr: 0x100002BF0, symSize: 0x20 }
  - { offsetInCU: 0xDED8, offset: 0xDED8, size: 0x8, addend: 0x0, symName: __ZNSt3__116__hash_node_baseIPNS_11__hash_nodeINS_17__hash_value_typeINS_12basic_stringIcNS_11char_traitsIcEENS_9allocatorIcEEEENS_5arrayIdLm3EEEEEPvEEE8__upcastB7v160006Ev, symObjAddr: 0x1CD0, symBinAddr: 0x100002C10, symSize: 0x20 }
  - { offsetInCU: 0xDEFE, offset: 0xDEFE, size: 0x8, addend: 0x0, symName: __ZNSt3__116allocator_traitsINS_9allocatorINS_11__hash_nodeINS_17__hash_value_typeINS_12basic_stringIcNS_11char_traitsIcEENS1_IcEEEENS_5arrayIdLm3EEEEEPvEEEEE7destroyB7v160006INS_4pairIKS8_SA_EEvvEEvRSE_PT_, symObjAddr: 0x1CF0, symBinAddr: 0x100002C30, symSize: 0x20 }
  - { offsetInCU: 0xDF39, offset: 0xDF39, size: 0x8, addend: 0x0, symName: __ZNSt3__122__hash_key_value_typesINS_17__hash_value_typeINS_12basic_stringIcNS_11char_traitsIcEENS_9allocatorIcEEEENS_5arrayIdLm3EEEEEE9__get_ptrB7v160006ERSA_, symObjAddr: 0x1D10, symBinAddr: 0x100002C50, symSize: 0x20 }
  - { offsetInCU: 0xDF5C, offset: 0xDF5C, size: 0x8, addend: 0x0, symName: __ZNSt3__116allocator_traitsINS_9allocatorINS_11__hash_nodeINS_17__hash_value_typeINS_12basic_stringIcNS_11char_traitsIcEENS1_IcEEEENS_5arrayIdLm3EEEEEPvEEEEE10deallocateB7v160006ERSE_PSD_m, symObjAddr: 0x1D30, symBinAddr: 0x100002C70, symSize: 0x30 }
  - { offsetInCU: 0xDF9E, offset: 0xDF9E, size: 0x8, addend: 0x0, symName: __ZNSt3__117__compressed_pairINS_16__hash_node_baseIPNS_11__hash_nodeINS_17__hash_value_typeINS_12basic_stringIcNS_11char_traitsIcEENS_9allocatorIcEEEENS_5arrayIdLm3EEEEEPvEEEENS7_ISE_EEE6secondB7v160006Ev, symObjAddr: 0x1D60, symBinAddr: 0x100002CA0, symSize: 0x20 }
  - { offsetInCU: 0xDFC4, offset: 0xDFC4, size: 0x8, addend: 0x0, symName: __ZNSt3__122__compressed_pair_elemINS_9allocatorINS_11__hash_nodeINS_17__hash_value_typeINS_12basic_stringIcNS_11char_traitsIcEENS1_IcEEEENS_5arrayIdLm3EEEEEPvEEEELi1ELb1EE5__getB7v160006Ev, symObjAddr: 0x1D80, symBinAddr: 0x100002CC0, symSize: 0x10 }
  - { offsetInCU: 0xDFEA, offset: 0xDFEA, size: 0x8, addend: 0x0, symName: __ZNSt3__114pointer_traitsIPNS_16__hash_node_baseIPNS_11__hash_nodeINS_17__hash_value_typeINS_12basic_stringIcNS_11char_traitsIcEENS_9allocatorIcEEEENS_5arrayIdLm3EEEEEPvEEEEE10pointer_toB7v160006ERSG_, symObjAddr: 0x1D90, symBinAddr: 0x100002CD0, symSize: 0x10 }
  - { offsetInCU: 0xE00D, offset: 0xE00D, size: 0x8, addend: 0x0, symName: __ZNSt3__14pairIKNS_12basic_stringIcNS_11char_traitsIcEENS_9allocatorIcEEEENS_5arrayIdLm3EEEED1Ev, symObjAddr: 0x1DA0, symBinAddr: 0x100002CE0, symSize: 0x20 }
  - { offsetInCU: 0xE039, offset: 0xE039, size: 0x8, addend: 0x0, symName: __ZNSt3__14pairIKNS_12basic_stringIcNS_11char_traitsIcEENS_9allocatorIcEEEENS_5arrayIdLm3EEEED2Ev, symObjAddr: 0x1DC0, symBinAddr: 0x100002D00, symSize: 0x20 }
  - { offsetInCU: 0xE065, offset: 0xE065, size: 0x8, addend: 0x0, symName: __ZNSt3__117__hash_value_typeINS_12basic_stringIcNS_11char_traitsIcEENS_9allocatorIcEEEENS_5arrayIdLm3EEEE11__get_valueB7v160006Ev, symObjAddr: 0x1DE0, symBinAddr: 0x100002D20, symSize: 0x10 }
  - { offsetInCU: 0xE08B, offset: 0xE08B, size: 0x8, addend: 0x0, symName: __ZNSt3__19allocatorINS_11__hash_nodeINS_17__hash_value_typeINS_12basic_stringIcNS_11char_traitsIcEENS0_IcEEEENS_5arrayIdLm3EEEEEPvEEE10deallocateB7v160006EPSC_m, symObjAddr: 0x1DF0, symBinAddr: 0x100002D30, symSize: 0x70 }
  - { offsetInCU: 0xE0CD, offset: 0xE0CD, size: 0x8, addend: 0x0, symName: __ZNSt3__122__compressed_pair_elemINS_16__hash_node_baseIPNS_11__hash_nodeINS_17__hash_value_typeINS_12basic_stringIcNS_11char_traitsIcEENS_9allocatorIcEEEENS_5arrayIdLm3EEEEEPvEEEELi0ELb0EE5__getB7v160006Ev, symObjAddr: 0x1E60, symBinAddr: 0x100002DA0, symSize: 0x10 }
  - { offsetInCU: 0xE0F3, offset: 0xE0F3, size: 0x8, addend: 0x0, symName: __ZNSt3__113unordered_mapINS_12basic_stringIcNS_11char_traitsIcEENS_9allocatorIcEEEENS_5arrayIdLm3EEENS_4hashIS6_EENS_8equal_toIS6_EENS4_INS_4pairIKS6_S8_EEEEED2B7v160006Ev, symObjAddr: 0x1E70, symBinAddr: 0x100002DB0, symSize: 0x20 }
  - { offsetInCU: 0xE1BA, offset: 0xE1BA, size: 0x8, addend: 0x0, symName: __ZNKSt3__113basic_istreamIcNS_11char_traitsIcEEE6sentrycvbB7v160006Ev, symObjAddr: 0x1E90, symBinAddr: 0x100002DD0, symSize: 0x20 }
  - { offsetInCU: 0xE1E0, offset: 0xE1E0, size: 0x8, addend: 0x0, symName: __ZNKSt3__19basic_iosIcNS_11char_traitsIcEEE5rdbufB7v160006Ev, symObjAddr: 0x1EB0, symBinAddr: 0x100002DF0, symSize: 0x20 }
  - { offsetInCU: 0xE208, offset: 0xE208, size: 0x8, addend: 0x0, symName: __ZNSt3__115basic_streambufIcNS_11char_traitsIcEEE6sbumpcB7v160006Ev, symObjAddr: 0x1ED0, symBinAddr: 0x100002E10, symSize: 0x60 }
  - { offsetInCU: 0xE22E, offset: 0xE22E, size: 0x8, addend: 0x0, symName: __ZNSt3__111char_traitsIcE11eq_int_typeEii, symObjAddr: 0x1F30, symBinAddr: 0x100002E70, symSize: 0x20 }
  - { offsetInCU: 0xE25F, offset: 0xE25F, size: 0x8, addend: 0x0, symName: __ZNSt3__111char_traitsIcE3eofEv, symObjAddr: 0x1F50, symBinAddr: 0x100002E90, symSize: 0x10 }
  - { offsetInCU: 0xE273, offset: 0xE273, size: 0x8, addend: 0x0, symName: __ZNSt3__111char_traitsIcE12to_char_typeEi, symObjAddr: 0x1F60, symBinAddr: 0x100002EA0, symSize: 0x10 }
  - { offsetInCU: 0xE296, offset: 0xE296, size: 0x8, addend: 0x0, symName: __ZNSt3__18ios_base18__setstate_nothrowB7v160006Ej, symObjAddr: 0x1F70, symBinAddr: 0x100002EB0, symSize: 0x50 }
  - { offsetInCU: 0xE2CB, offset: 0xE2CB, size: 0x8, addend: 0x0, symName: __ZNKSt3__19basic_iosIcNS_11char_traitsIcEEE10exceptionsB7v160006Ev, symObjAddr: 0x1FC0, symBinAddr: 0x100002F00, symSize: 0x20 }
  - { offsetInCU: 0xE2F1, offset: 0xE2F1, size: 0x8, addend: 0x0, symName: __ZNSt3__19basic_iosIcNS_11char_traitsIcEEE8setstateB7v160006Ej, symObjAddr: 0x1FE0, symBinAddr: 0x100002F20, symSize: 0x30 }
  - { offsetInCU: 0xE326, offset: 0xE326, size: 0x8, addend: 0x0, symName: __ZNKSt3__18ios_base5rdbufB7v160006Ev, symObjAddr: 0x2010, symBinAddr: 0x100002F50, symSize: 0x20 }
  - { offsetInCU: 0xE34C, offset: 0xE34C, size: 0x8, addend: 0x0, symName: __ZNSt3__111char_traitsIcE11to_int_typeEc, symObjAddr: 0x2030, symBinAddr: 0x100002F70, symSize: 0x10 }
  - { offsetInCU: 0xE36F, offset: 0xE36F, size: 0x8, addend: 0x0, symName: __ZNKSt3__18ios_base10exceptionsB7v160006Ev, symObjAddr: 0x2040, symBinAddr: 0x100002F80, symSize: 0x20 }
  - { offsetInCU: 0xE397, offset: 0xE397, size: 0x8, addend: 0x0, symName: __ZNSt3__18ios_base8setstateB7v160006Ej, symObjAddr: 0x2060, symBinAddr: 0x100002FA0, symSize: 0x30 }
  - { offsetInCU: 0xE3CE, offset: 0xE3CE, size: 0x8, addend: 0x0, symName: __ZNKSt3__19basic_iosIcNS_11char_traitsIcEEE5widenB7v160006Ec, symObjAddr: 0x2090, symBinAddr: 0x100002FD0, symSize: 0x90 }
  - { offsetInCU: 0xE432, offset: 0xE432, size: 0x8, addend: 0x0, symName: __ZNKSt3__15ctypeIcE5widenB7v160006Ec, symObjAddr: 0x2150, symBinAddr: 0x100003090, symSize: 0x30 }
  - { offsetInCU: 0xE467, offset: 0xE467, size: 0x8, addend: 0x0, symName: __ZNSt3__111char_traitsIcE6lengthEPKc, symObjAddr: 0x2370, symBinAddr: 0x1000032B0, symSize: 0x40 }
  - { offsetInCU: 0xE4A8, offset: 0xE4A8, size: 0x8, addend: 0x0, symName: __ZNKSt3__113basic_ostreamIcNS_11char_traitsIcEEE6sentrycvbB7v160006Ev, symObjAddr: 0x23B0, symBinAddr: 0x1000032F0, symSize: 0x20 }
  - { offsetInCU: 0xE4CE, offset: 0xE4CE, size: 0x8, addend: 0x0, symName: __ZNSt3__119ostreambuf_iteratorIcNS_11char_traitsIcEEEC1B7v160006ERNS_13basic_ostreamIcS2_EE, symObjAddr: 0x25F0, symBinAddr: 0x100003530, symSize: 0x30 }
  - { offsetInCU: 0xE506, offset: 0xE506, size: 0x8, addend: 0x0, symName: __ZNKSt3__18ios_base5flagsB7v160006Ev, symObjAddr: 0x2620, symBinAddr: 0x100003560, symSize: 0x20 }
  - { offsetInCU: 0xE52E, offset: 0xE52E, size: 0x8, addend: 0x0, symName: __ZNKSt3__19basic_iosIcNS_11char_traitsIcEEE4fillB7v160006Ev, symObjAddr: 0x2640, symBinAddr: 0x100003580, symSize: 0x70 }
  - { offsetInCU: 0xE556, offset: 0xE556, size: 0x8, addend: 0x0, symName: __ZNKSt3__119ostreambuf_iteratorIcNS_11char_traitsIcEEE6failedB7v160006Ev, symObjAddr: 0x26B0, symBinAddr: 0x1000035F0, symSize: 0x20 }
  - { offsetInCU: 0xE57C, offset: 0xE57C, size: 0x8, addend: 0x0, symName: __ZNKSt3__18ios_base5widthB7v160006Ev, symObjAddr: 0x26D0, symBinAddr: 0x100003610, symSize: 0x20 }
  - { offsetInCU: 0xE5A4, offset: 0xE5A4, size: 0x8, addend: 0x0, symName: __ZNSt3__115basic_streambufIcNS_11char_traitsIcEEE5sputnB7v160006EPKcl, symObjAddr: 0x26F0, symBinAddr: 0x100003630, symSize: 0x30 }
  - { offsetInCU: 0xE5E6, offset: 0xE5E6, size: 0x8, addend: 0x0, symName: __ZNSt3__112basic_stringIcNS_11char_traitsIcEENS_9allocatorIcEEEC1B7v160006Emc, symObjAddr: 0x2720, symBinAddr: 0x100003660, symSize: 0x30 }
  - { offsetInCU: 0xE62E, offset: 0xE62E, size: 0x8, addend: 0x0, symName: __ZNKSt3__112basic_stringIcNS_11char_traitsIcEENS_9allocatorIcEEE4dataB7v160006Ev, symObjAddr: 0x2750, symBinAddr: 0x100003690, symSize: 0x30 }
  - { offsetInCU: 0xE654, offset: 0xE654, size: 0x8, addend: 0x0, symName: __ZNSt3__18ios_base5widthB7v160006El, symObjAddr: 0x2780, symBinAddr: 0x1000036C0, symSize: 0x30 }
  - { offsetInCU: 0xE69A, offset: 0xE69A, size: 0x8, addend: 0x0, symName: __ZNSt3__112basic_stringIcNS_11char_traitsIcEENS_9allocatorIcEEEC2B7v160006Emc, symObjAddr: 0x27B0, symBinAddr: 0x1000036F0, symSize: 0x50 }
  - { offsetInCU: 0xE6E2, offset: 0xE6E2, size: 0x8, addend: 0x0, symName: __ZNSt3__117__compressed_pairINS_12basic_stringIcNS_11char_traitsIcEENS_9allocatorIcEEE5__repES5_EC1B7v160006INS_18__default_init_tagESA_EEOT_OT0_, symObjAddr: 0x2800, symBinAddr: 0x100003740, symSize: 0x30 }
  - { offsetInCU: 0xE73A, offset: 0xE73A, size: 0x8, addend: 0x0, symName: __ZNSt3__117__compressed_pairINS_12basic_stringIcNS_11char_traitsIcEENS_9allocatorIcEEE5__repES5_EC2B7v160006INS_18__default_init_tagESA_EEOT_OT0_, symObjAddr: 0x2840, symBinAddr: 0x100003780, symSize: 0x30 }
  - { offsetInCU: 0xE792, offset: 0xE792, size: 0x8, addend: 0x0, symName: __ZNSt3__122__compressed_pair_elemINS_12basic_stringIcNS_11char_traitsIcEENS_9allocatorIcEEE5__repELi0ELb0EEC2B7v160006ENS_18__default_init_tagE, symObjAddr: 0x2870, symBinAddr: 0x1000037B0, symSize: 0x10 }
  - { offsetInCU: 0xE7C7, offset: 0xE7C7, size: 0x8, addend: 0x0, symName: __ZNSt3__122__compressed_pair_elemINS_9allocatorIcEELi1ELb1EEC2B7v160006ENS_18__default_init_tagE, symObjAddr: 0x2880, symBinAddr: 0x1000037C0, symSize: 0x20 }
  - { offsetInCU: 0xE7FC, offset: 0xE7FC, size: 0x8, addend: 0x0, symName: __ZNSt3__19allocatorIcEC2B7v160006Ev, symObjAddr: 0x28A0, symBinAddr: 0x1000037E0, symSize: 0x20 }
  - { offsetInCU: 0xE826, offset: 0xE826, size: 0x8, addend: 0x0, symName: __ZNSt3__116__non_trivial_ifILb1ENS_9allocatorIcEEEC2B7v160006Ev, symObjAddr: 0x28C0, symBinAddr: 0x100003800, symSize: 0x10 }
  - { offsetInCU: 0xE850, offset: 0xE850, size: 0x8, addend: 0x0, symName: __ZNKSt3__112basic_stringIcNS_11char_traitsIcEENS_9allocatorIcEEE13__get_pointerB7v160006Ev, symObjAddr: 0x28E0, symBinAddr: 0x100003820, symSize: 0x50 }
  - { offsetInCU: 0xE876, offset: 0xE876, size: 0x8, addend: 0x0, symName: __ZNKSt3__112basic_stringIcNS_11char_traitsIcEENS_9allocatorIcEEE9__is_longB7v160006Ev, symObjAddr: 0x2930, symBinAddr: 0x100003870, symSize: 0x60 }
  - { offsetInCU: 0xE89C, offset: 0xE89C, size: 0x8, addend: 0x0, symName: __ZNKSt3__112basic_stringIcNS_11char_traitsIcEENS_9allocatorIcEEE18__get_long_pointerB7v160006Ev, symObjAddr: 0x2990, symBinAddr: 0x1000038D0, symSize: 0x20 }
  - { offsetInCU: 0xE8C2, offset: 0xE8C2, size: 0x8, addend: 0x0, symName: __ZNKSt3__112basic_stringIcNS_11char_traitsIcEENS_9allocatorIcEEE19__get_short_pointerB7v160006Ev, symObjAddr: 0x29B0, symBinAddr: 0x1000038F0, symSize: 0x30 }
  - { offsetInCU: 0xE8E8, offset: 0xE8E8, size: 0x8, addend: 0x0, symName: __ZNKSt3__117__compressed_pairINS_12basic_stringIcNS_11char_traitsIcEENS_9allocatorIcEEE5__repES5_E5firstB7v160006Ev, symObjAddr: 0x29E0, symBinAddr: 0x100003920, symSize: 0x20 }
  - { offsetInCU: 0xE90E, offset: 0xE90E, size: 0x8, addend: 0x0, symName: __ZNKSt3__122__compressed_pair_elemINS_12basic_stringIcNS_11char_traitsIcEENS_9allocatorIcEEE5__repELi0ELb0EE5__getB7v160006Ev, symObjAddr: 0x2A00, symBinAddr: 0x100003940, symSize: 0x10 }
  - { offsetInCU: 0xE934, offset: 0xE934, size: 0x8, addend: 0x0, symName: __ZNSt3__114pointer_traitsIPKcE10pointer_toB7v160006ERS1_, symObjAddr: 0x2A10, symBinAddr: 0x100003950, symSize: 0x10 }
  - { offsetInCU: 0xE957, offset: 0xE957, size: 0x8, addend: 0x0, symName: __ZNSt3__119ostreambuf_iteratorIcNS_11char_traitsIcEEEC2B7v160006ERNS_13basic_ostreamIcS2_EE, symObjAddr: 0x2A20, symBinAddr: 0x100003960, symSize: 0x60 }
  - { offsetInCU: 0xE98F, offset: 0xE98F, size: 0x8, addend: 0x0, symName: __ZNSt3__112basic_stringIcNS_11char_traitsIcEENS_9allocatorIcEEEC2B7v160006Ev, symObjAddr: 0x2AA0, symBinAddr: 0x1000039E0, symSize: 0x40 }
  - { offsetInCU: 0xE9B9, offset: 0xE9B9, size: 0x8, addend: 0x0, symName: __ZNSt3__112basic_stringIcNS_11char_traitsIcEENS_9allocatorIcEEE14__default_initB7v160006Ev, symObjAddr: 0x2AE0, symBinAddr: 0x100003A20, symSize: 0xC0 }
  - { offsetInCU: 0xEA0C, offset: 0xEA0C, size: 0x8, addend: 0x0, symName: __ZNSt3__117__compressed_pairINS_12basic_stringIcNS_11char_traitsIcEENS_9allocatorIcEEE5__repES5_E5firstB7v160006Ev, symObjAddr: 0x2BA0, symBinAddr: 0x100003AE0, symSize: 0x20 }
  - { offsetInCU: 0xEA32, offset: 0xEA32, size: 0x8, addend: 0x0, symName: __ZNSt3__112basic_stringIcNS_11char_traitsIcEENS_9allocatorIcEEE11__recommendB7v160006Em, symObjAddr: 0x2BC0, symBinAddr: 0x100003B00, symSize: 0x90 }
  - { offsetInCU: 0xEA65, offset: 0xEA65, size: 0x8, addend: 0x0, symName: __ZNSt3__116allocator_traitsINS_9allocatorIcEEE8allocateB7v160006ERS2_m, symObjAddr: 0x2C50, symBinAddr: 0x100003B90, symSize: 0x30 }
  - { offsetInCU: 0xEA98, offset: 0xEA98, size: 0x8, addend: 0x0, symName: __ZNSt3__112basic_stringIcNS_11char_traitsIcEENS_9allocatorIcEEE7__allocB7v160006Ev, symObjAddr: 0x2C80, symBinAddr: 0x100003BC0, symSize: 0x20 }
  - { offsetInCU: 0xEABE, offset: 0xEABE, size: 0x8, addend: 0x0, symName: __ZNSt3__112basic_stringIcNS_11char_traitsIcEENS_9allocatorIcEEE16__begin_lifetimeB7v160006EPcm, symObjAddr: 0x2CA0, symBinAddr: 0x100003BE0, symSize: 0x10 }
  - { offsetInCU: 0xEAF1, offset: 0xEAF1, size: 0x8, addend: 0x0, symName: __ZNSt3__112basic_stringIcNS_11char_traitsIcEENS_9allocatorIcEEE18__set_long_pointerB7v160006EPc, symObjAddr: 0x2CB0, symBinAddr: 0x100003BF0, symSize: 0x30 }
  - { offsetInCU: 0xEB26, offset: 0xEB26, size: 0x8, addend: 0x0, symName: __ZNSt3__112basic_stringIcNS_11char_traitsIcEENS_9allocatorIcEEE14__set_long_capB7v160006Em, symObjAddr: 0x2CE0, symBinAddr: 0x100003C20, symSize: 0x70 }
  - { offsetInCU: 0xEB5B, offset: 0xEB5B, size: 0x8, addend: 0x0, symName: __ZNSt3__112basic_stringIcNS_11char_traitsIcEENS_9allocatorIcEEE15__set_long_sizeB7v160006Em, symObjAddr: 0x2D50, symBinAddr: 0x100003C90, symSize: 0x30 }
  - { offsetInCU: 0xEB90, offset: 0xEB90, size: 0x8, addend: 0x0, symName: __ZNSt3__122__compressed_pair_elemINS_12basic_stringIcNS_11char_traitsIcEENS_9allocatorIcEEE5__repELi0ELb0EE5__getB7v160006Ev, symObjAddr: 0x2D80, symBinAddr: 0x100003CC0, symSize: 0x10 }
  - { offsetInCU: 0xEBB6, offset: 0xEBB6, size: 0x8, addend: 0x0, symName: __ZNSt3__112basic_stringIcNS_11char_traitsIcEENS_9allocatorIcEEE10__align_itB7v160006ILm16EEEmm, symObjAddr: 0x2D90, symBinAddr: 0x100003CD0, symSize: 0x20 }
  - { offsetInCU: 0xEBE4, offset: 0xEBE4, size: 0x8, addend: 0x0, symName: __ZNSt3__19allocatorIcE8allocateB7v160006Em, symObjAddr: 0x2DB0, symBinAddr: 0x100003CF0, symSize: 0x80 }
  - { offsetInCU: 0xEC22, offset: 0xEC22, size: 0x8, addend: 0x0, symName: __ZNSt3__116allocator_traitsINS_9allocatorIcEEE8max_sizeB7v160006IS2_vEEmRKS2_, symObjAddr: 0x2E30, symBinAddr: 0x100003D70, symSize: 0x20 }
  - { offsetInCU: 0xEC50, offset: 0xEC50, size: 0x8, addend: 0x0, symName: __ZNKSt3__19allocatorIcE8max_sizeB7v160006Ev, symObjAddr: 0x2EB0, symBinAddr: 0x100003DF0, symSize: 0x20 }
  - { offsetInCU: 0xEC76, offset: 0xEC76, size: 0x8, addend: 0x0, symName: __ZNSt3__117__compressed_pairINS_12basic_stringIcNS_11char_traitsIcEENS_9allocatorIcEEE5__repES5_E6secondB7v160006Ev, symObjAddr: 0x2EF0, symBinAddr: 0x100003E30, symSize: 0x20 }
  - { offsetInCU: 0xEC9C, offset: 0xEC9C, size: 0x8, addend: 0x0, symName: __ZNSt3__122__compressed_pair_elemINS_9allocatorIcEELi1ELb1EE5__getB7v160006Ev, symObjAddr: 0x2F10, symBinAddr: 0x100003E50, symSize: 0x10 }
  - { offsetInCU: 0xECC2, offset: 0xECC2, size: 0x8, addend: 0x0, symName: __ZNSt3__112basic_stringIcNS_11char_traitsIcEENS_9allocatorIcEEE5clearB7v160006Ev, symObjAddr: 0x2F20, symBinAddr: 0x100003E60, symSize: 0xA0 }
  - { offsetInCU: 0xECEA, offset: 0xECEA, size: 0x8, addend: 0x0, symName: __ZNKSt3__112basic_stringIcNS_11char_traitsIcEENS_9allocatorIcEEE8max_sizeB7v160006Ev, symObjAddr: 0x2FC0, symBinAddr: 0x100003F00, symSize: 0xA0 }
  - { offsetInCU: 0xED3D, offset: 0xED3D, size: 0x8, addend: 0x0, symName: __ZNSt3__114numeric_limitsIlE3maxB7v160006Ev, symObjAddr: 0x3060, symBinAddr: 0x100003FA0, symSize: 0x10 }
  - { offsetInCU: 0xED51, offset: 0xED51, size: 0x8, addend: 0x0, symName: __ZNSt3__115basic_streambufIcNS_11char_traitsIcEEE5sgetcB7v160006Ev, symObjAddr: 0x3070, symBinAddr: 0x100003FB0, symSize: 0x50 }
  - { offsetInCU: 0xED77, offset: 0xED77, size: 0x8, addend: 0x0, symName: __ZNKSt3__15ctypeIcE2isB7v160006Ejc, symObjAddr: 0x30C0, symBinAddr: 0x100004000, symSize: 0x70 }
  - { offsetInCU: 0xEDBB, offset: 0xEDBB, size: 0x8, addend: 0x0, symName: __ZNSt3__111char_traitsIcE6assignERcRKc, symObjAddr: 0x3140, symBinAddr: 0x100004080, symSize: 0x20 }
  - { offsetInCU: 0xEDEC, offset: 0xEDEC, size: 0x8, addend: 0x0, symName: __ZNSt3__112basic_stringIcNS_11char_traitsIcEENS_9allocatorIcEEE18__get_long_pointerB7v160006Ev, symObjAddr: 0x3160, symBinAddr: 0x1000040A0, symSize: 0x20 }
  - { offsetInCU: 0xEE12, offset: 0xEE12, size: 0x8, addend: 0x0, symName: __ZNSt3__112basic_stringIcNS_11char_traitsIcEENS_9allocatorIcEEE19__get_short_pointerB7v160006Ev, symObjAddr: 0x3180, symBinAddr: 0x1000040C0, symSize: 0x30 }
  - { offsetInCU: 0xEE38, offset: 0xEE38, size: 0x8, addend: 0x0, symName: __ZNSt3__112basic_stringIcNS_11char_traitsIcEENS_9allocatorIcEEE16__set_short_sizeB7v160006Em, symObjAddr: 0x31B0, symBinAddr: 0x1000040F0, symSize: 0x50 }
  - { offsetInCU: 0xEE6D, offset: 0xEE6D, size: 0x8, addend: 0x0, symName: __ZNSt3__114pointer_traitsIPcE10pointer_toB7v160006ERc, symObjAddr: 0x3200, symBinAddr: 0x100004140, symSize: 0x10 }
  - { offsetInCU: 0xEE90, offset: 0xEE90, size: 0x8, addend: 0x0, symName: __ZNKSt3__112basic_stringIcNS_11char_traitsIcEENS_9allocatorIcEEE7__allocB7v160006Ev, symObjAddr: 0x3210, symBinAddr: 0x100004150, symSize: 0x20 }
  - { offsetInCU: 0xEEB6, offset: 0xEEB6, size: 0x8, addend: 0x0, symName: __ZNSt3__114numeric_limitsImE3maxB7v160006Ev, symObjAddr: 0x3230, symBinAddr: 0x100004170, symSize: 0x10 }
  - { offsetInCU: 0xEECA, offset: 0xEECA, size: 0x8, addend: 0x0, symName: __ZNKSt3__117__compressed_pairINS_12basic_stringIcNS_11char_traitsIcEENS_9allocatorIcEEE5__repES5_E6secondB7v160006Ev, symObjAddr: 0x3240, symBinAddr: 0x100004180, symSize: 0x20 }
  - { offsetInCU: 0xEEF0, offset: 0xEEF0, size: 0x8, addend: 0x0, symName: __ZNKSt3__122__compressed_pair_elemINS_9allocatorIcEELi1ELb1EE5__getB7v160006Ev, symObjAddr: 0x3260, symBinAddr: 0x1000041A0, symSize: 0x10 }
  - { offsetInCU: 0xEF16, offset: 0xEF16, size: 0x8, addend: 0x0, symName: __ZNSt3__123__libcpp_numeric_limitsImLb1EE3maxB7v160006Ev, symObjAddr: 0x3270, symBinAddr: 0x1000041B0, symSize: 0x10 }
  - { offsetInCU: 0xEF2A, offset: 0xEF2A, size: 0x8, addend: 0x0, symName: __ZNSt3__123__libcpp_numeric_limitsIlLb1EE3maxB7v160006Ev, symObjAddr: 0x3280, symBinAddr: 0x1000041C0, symSize: 0x10 }
  - { offsetInCU: 0xEF3D, offset: 0xEF3D, size: 0x8, addend: 0x0, symName: __Z7isasciii, symObjAddr: 0x3290, symBinAddr: 0x1000041D0, symSize: 0x20 }
  - { offsetInCU: 0xEF6A, offset: 0xEF6A, size: 0x8, addend: 0x0, symName: __ZNSt3__112__hash_tableINS_17__hash_value_typeINS_12basic_stringIcNS_11char_traitsIcEENS_9allocatorIcEEEENS_5arrayIdLm3EEEEENS_22__unordered_map_hasherIS7_SA_NS_4hashIS7_EENS_8equal_toIS7_EELb1EEENS_21__unordered_map_equalIS7_SA_SF_SD_Lb1EEENS5_ISA_EEE4findIS7_EENS_15__hash_iteratorIPNS_11__hash_nodeISA_PvEEEERKT_, symObjAddr: 0x32B0, symBinAddr: 0x1000041F0, symSize: 0x180 }
  - { offsetInCU: 0xEFF5, offset: 0xEFF5, size: 0x8, addend: 0x0, symName: __ZNSt3__119__hash_map_iteratorINS_15__hash_iteratorIPNS_11__hash_nodeINS_17__hash_value_typeINS_12basic_stringIcNS_11char_traitsIcEENS_9allocatorIcEEEENS_5arrayIdLm3EEEEEPvEEEEEC1B7v160006ESG_, symObjAddr: 0x3430, symBinAddr: 0x100004370, symSize: 0x30 }
  - { offsetInCU: 0xF02E, offset: 0xF02E, size: 0x8, addend: 0x0, symName: __ZNSt3__112__hash_tableINS_17__hash_value_typeINS_12basic_stringIcNS_11char_traitsIcEENS_9allocatorIcEEEENS_5arrayIdLm3EEEEENS_22__unordered_map_hasherIS7_SA_NS_4hashIS7_EENS_8equal_toIS7_EELb1EEENS_21__unordered_map_equalIS7_SA_SF_SD_Lb1EEENS5_ISA_EEE13hash_functionB7v160006Ev, symObjAddr: 0x3460, symBinAddr: 0x1000043A0, symSize: 0x20 }
  - { offsetInCU: 0xF054, offset: 0xF054, size: 0x8, addend: 0x0, symName: __ZNKSt3__122__unordered_map_hasherINS_12basic_stringIcNS_11char_traitsIcEENS_9allocatorIcEEEENS_17__hash_value_typeIS6_NS_5arrayIdLm3EEEEENS_4hashIS6_EENS_8equal_toIS6_EELb1EEclB7v160006ERKS6_, symObjAddr: 0x3480, symBinAddr: 0x1000043C0, symSize: 0x30 }
  - { offsetInCU: 0xF089, offset: 0xF089, size: 0x8, addend: 0x0, symName: __ZNKSt3__112__hash_tableINS_17__hash_value_typeINS_12basic_stringIcNS_11char_traitsIcEENS_9allocatorIcEEEENS_5arrayIdLm3EEEEENS_22__unordered_map_hasherIS7_SA_NS_4hashIS7_EENS_8equal_toIS7_EELb1EEENS_21__unordered_map_equalIS7_SA_SF_SD_Lb1EEENS5_ISA_EEE12bucket_countB7v160006Ev, symObjAddr: 0x34B0, symBinAddr: 0x1000043F0, symSize: 0x30 }
  - { offsetInCU: 0xF0AF, offset: 0xF0AF, size: 0x8, addend: 0x0, symName: __ZNKSt3__110unique_ptrIA_PNS_16__hash_node_baseIPNS_11__hash_nodeINS_17__hash_value_typeINS_12basic_stringIcNS_11char_traitsIcEENS_9allocatorIcEEEENS_5arrayIdLm3EEEEEPvEEEENS_25__bucket_list_deallocatorINS7_ISH_EEEEEixB7v160006Em, symObjAddr: 0x3560, symBinAddr: 0x1000044A0, symSize: 0x30 }
  - { offsetInCU: 0xF0E4, offset: 0xF0E4, size: 0x8, addend: 0x0, symName: __ZNKSt3__116__hash_node_baseIPNS_11__hash_nodeINS_17__hash_value_typeINS_12basic_stringIcNS_11char_traitsIcEENS_9allocatorIcEEEENS_5arrayIdLm3EEEEEPvEEE6__hashB7v160006Ev, symObjAddr: 0x3590, symBinAddr: 0x1000044D0, symSize: 0x20 }
  - { offsetInCU: 0xF10A, offset: 0xF10A, size: 0x8, addend: 0x0, symName: __ZNSt3__112__hash_tableINS_17__hash_value_typeINS_12basic_stringIcNS_11char_traitsIcEENS_9allocatorIcEEEENS_5arrayIdLm3EEEEENS_22__unordered_map_hasherIS7_SA_NS_4hashIS7_EENS_8equal_toIS7_EELb1EEENS_21__unordered_map_equalIS7_SA_SF_SD_Lb1EEENS5_ISA_EEE6key_eqB7v160006Ev, symObjAddr: 0x35B0, symBinAddr: 0x1000044F0, symSize: 0x20 }
  - { offsetInCU: 0xF130, offset: 0xF130, size: 0x8, addend: 0x0, symName: __ZNKSt3__121__unordered_map_equalINS_12basic_stringIcNS_11char_traitsIcEENS_9allocatorIcEEEENS_17__hash_value_typeIS6_NS_5arrayIdLm3EEEEENS_8equal_toIS6_EENS_4hashIS6_EELb1EEclB7v160006ERKSA_RKS6_, symObjAddr: 0x35D0, symBinAddr: 0x100004510, symSize: 0x40 }
  - { offsetInCU: 0xF174, offset: 0xF174, size: 0x8, addend: 0x0, symName: __ZNSt3__115__hash_iteratorIPNS_11__hash_nodeINS_17__hash_value_typeINS_12basic_stringIcNS_11char_traitsIcEENS_9allocatorIcEEEENS_5arrayIdLm3EEEEEPvEEEC1B7v160006EPNS_16__hash_node_baseISE_EEPKv, symObjAddr: 0x3610, symBinAddr: 0x100004550, symSize: 0x30 }
  - { offsetInCU: 0xF1BC, offset: 0xF1BC, size: 0x8, addend: 0x0, symName: __ZNSt3__112__hash_tableINS_17__hash_value_typeINS_12basic_stringIcNS_11char_traitsIcEENS_9allocatorIcEEEENS_5arrayIdLm3EEEEENS_22__unordered_map_hasherIS7_SA_NS_4hashIS7_EENS_8equal_toIS7_EELb1EEENS_21__unordered_map_equalIS7_SA_SF_SD_Lb1EEENS5_ISA_EEE3endEv, symObjAddr: 0x3640, symBinAddr: 0x100004580, symSize: 0x30 }
  - { offsetInCU: 0xF1E4, offset: 0xF1E4, size: 0x8, addend: 0x0, symName: __ZNSt3__117__compressed_pairImNS_22__unordered_map_hasherINS_12basic_stringIcNS_11char_traitsIcEENS_9allocatorIcEEEENS_17__hash_value_typeIS7_NS_5arrayIdLm3EEEEENS_4hashIS7_EENS_8equal_toIS7_EELb1EEEE6secondB7v160006Ev, symObjAddr: 0x3670, symBinAddr: 0x1000045B0, symSize: 0x20 }
  - { offsetInCU: 0xF20A, offset: 0xF20A, size: 0x8, addend: 0x0, symName: __ZNSt3__122__compressed_pair_elemINS_22__unordered_map_hasherINS_12basic_stringIcNS_11char_traitsIcEENS_9allocatorIcEEEENS_17__hash_value_typeIS7_NS_5arrayIdLm3EEEEENS_4hashIS7_EENS_8equal_toIS7_EELb1EEELi1ELb1EE5__getB7v160006Ev, symObjAddr: 0x3690, symBinAddr: 0x1000045D0, symSize: 0x10 }
  - { offsetInCU: 0xF230, offset: 0xF230, size: 0x8, addend: 0x0, symName: __ZNKSt3__113__string_hashIcNS_9allocatorIcEEEclERKNS_12basic_stringIcNS_11char_traitsIcEES2_EE, symObjAddr: 0x36A0, symBinAddr: 0x1000045E0, symSize: 0x70 }
  - { offsetInCU: 0xF265, offset: 0xF265, size: 0x8, addend: 0x0, symName: __ZNKSt3__112basic_stringIcNS_11char_traitsIcEENS_9allocatorIcEEE4sizeB7v160006Ev, symObjAddr: 0x3750, symBinAddr: 0x100004690, symSize: 0x50 }
  - { offsetInCU: 0xF28B, offset: 0xF28B, size: 0x8, addend: 0x0, symName: __ZNSt3__121__murmur2_or_cityhashImLm64EEclEPKvm, symObjAddr: 0x37A0, symBinAddr: 0x1000046E0, symSize: 0x3D0 }
  - { offsetInCU: 0xF324, offset: 0xF324, size: 0x8, addend: 0x0, symName: __ZNSt3__121__murmur2_or_cityhashImLm64EE18__hash_len_0_to_16EPKcm, symObjAddr: 0x3B70, symBinAddr: 0x100004AB0, symSize: 0x180 }
  - { offsetInCU: 0xF400, offset: 0xF400, size: 0x8, addend: 0x0, symName: __ZNSt3__121__murmur2_or_cityhashImLm64EE19__hash_len_17_to_32EPKcm, symObjAddr: 0x3CF0, symBinAddr: 0x100004C30, symSize: 0x100 }
  - { offsetInCU: 0xF469, offset: 0xF469, size: 0x8, addend: 0x0, symName: __ZNSt3__121__murmur2_or_cityhashImLm64EE19__hash_len_33_to_64EPKcm, symObjAddr: 0x3DF0, symBinAddr: 0x100004D30, symSize: 0x260 }
  - { offsetInCU: 0xF51B, offset: 0xF51B, size: 0x8, addend: 0x0, symName: __ZNSt3__121__murmur2_or_cityhashImLm64EE13__hash_len_16Emm, symObjAddr: 0x4070, symBinAddr: 0x100004FB0, symSize: 0x90 }
  - { offsetInCU: 0xF576, offset: 0xF576, size: 0x8, addend: 0x0, symName: __ZNSt3__121__murmur2_or_cityhashImLm64EE29__weak_hash_len_32_with_seedsEPKcmm, symObjAddr: 0x4100, symBinAddr: 0x100005040, symSize: 0x90 }
  - { offsetInCU: 0xF5B5, offset: 0xF5B5, size: 0x8, addend: 0x0, symName: __ZNSt3__121__murmur2_or_cityhashImLm64EE8__rotateEmi, symObjAddr: 0x4190, symBinAddr: 0x1000050D0, symSize: 0x50 }
  - { offsetInCU: 0xF5E6, offset: 0xF5E6, size: 0x8, addend: 0x0, symName: __ZNSt3__14pairImmEaSB7v160006ERKS1_, symObjAddr: 0x41E0, symBinAddr: 0x100005120, symSize: 0x30 }
  - { offsetInCU: 0xF61A, offset: 0xF61A, size: 0x8, addend: 0x0, symName: __ZNSt3__121__murmur2_or_cityhashImLm64EE11__shift_mixEm, symObjAddr: 0x4250, symBinAddr: 0x100005190, symSize: 0x20 }
  - { offsetInCU: 0xF63D, offset: 0xF63D, size: 0x8, addend: 0x0, symName: __ZNSt3__121__murmur2_or_cityhashImLm64EE22__rotate_by_at_least_1Emi, symObjAddr: 0x4270, symBinAddr: 0x1000051B0, symSize: 0x30 }
  - { offsetInCU: 0xF66E, offset: 0xF66E, size: 0x8, addend: 0x0, symName: __ZNSt3__121__murmur2_or_cityhashImLm64EE29__weak_hash_len_32_with_seedsEmmmmmm, symObjAddr: 0x42C0, symBinAddr: 0x100005200, symSize: 0xD0 }
  - { offsetInCU: 0xF6E6, offset: 0xF6E6, size: 0x8, addend: 0x0, symName: __ZNSt3__14pairImmEC1B7v160006ERKmS3_, symObjAddr: 0x4390, symBinAddr: 0x1000052D0, symSize: 0x30 }
  - { offsetInCU: 0xF72C, offset: 0xF72C, size: 0x8, addend: 0x0, symName: __ZNSt3__14pairImmEC2B7v160006ERKmS3_, symObjAddr: 0x43C0, symBinAddr: 0x100005300, symSize: 0x30 }
  - { offsetInCU: 0xF772, offset: 0xF772, size: 0x8, addend: 0x0, symName: __ZNKSt3__112basic_stringIcNS_11char_traitsIcEENS_9allocatorIcEEE15__get_long_sizeB7v160006Ev, symObjAddr: 0x43F0, symBinAddr: 0x100005330, symSize: 0x20 }
  - { offsetInCU: 0xF798, offset: 0xF798, size: 0x8, addend: 0x0, symName: __ZNKSt3__112basic_stringIcNS_11char_traitsIcEENS_9allocatorIcEEE16__get_short_sizeB7v160006Ev, symObjAddr: 0x4410, symBinAddr: 0x100005350, symSize: 0x30 }
  - { offsetInCU: 0xF7BE, offset: 0xF7BE, size: 0x8, addend: 0x0, symName: __ZNKSt3__110unique_ptrIA_PNS_16__hash_node_baseIPNS_11__hash_nodeINS_17__hash_value_typeINS_12basic_stringIcNS_11char_traitsIcEENS_9allocatorIcEEEENS_5arrayIdLm3EEEEEPvEEEENS_25__bucket_list_deallocatorINS7_ISH_EEEEE11get_deleterB7v160006Ev, symObjAddr: 0x4440, symBinAddr: 0x100005380, symSize: 0x20 }
  - { offsetInCU: 0xF7E4, offset: 0xF7E4, size: 0x8, addend: 0x0, symName: __ZNKSt3__125__bucket_list_deallocatorINS_9allocatorIPNS_16__hash_node_baseIPNS_11__hash_nodeINS_17__hash_value_typeINS_12basic_stringIcNS_11char_traitsIcEENS1_IcEEEENS_5arrayIdLm3EEEEEPvEEEEEEE4sizeB7v160006Ev, symObjAddr: 0x4460, symBinAddr: 0x1000053A0, symSize: 0x20 }
  - { offsetInCU: 0xF80A, offset: 0xF80A, size: 0x8, addend: 0x0, symName: __ZNKSt3__117__compressed_pairIPPNS_16__hash_node_baseIPNS_11__hash_nodeINS_17__hash_value_typeINS_12basic_stringIcNS_11char_traitsIcEENS_9allocatorIcEEEENS_5arrayIdLm3EEEEEPvEEEENS_25__bucket_list_deallocatorINS7_ISH_EEEEE6secondB7v160006Ev, symObjAddr: 0x4480, symBinAddr: 0x1000053C0, symSize: 0x20 }
  - { offsetInCU: 0xF830, offset: 0xF830, size: 0x8, addend: 0x0, symName: __ZNKSt3__122__compressed_pair_elemINS_25__bucket_list_deallocatorINS_9allocatorIPNS_16__hash_node_baseIPNS_11__hash_nodeINS_17__hash_value_typeINS_12basic_stringIcNS_11char_traitsIcEENS2_IcEEEENS_5arrayIdLm3EEEEEPvEEEEEEEELi1ELb0EE5__getB7v160006Ev, symObjAddr: 0x44A0, symBinAddr: 0x1000053E0, symSize: 0x10 }
  - { offsetInCU: 0xF856, offset: 0xF856, size: 0x8, addend: 0x0, symName: __ZNKSt3__117__compressed_pairImNS_9allocatorIPNS_16__hash_node_baseIPNS_11__hash_nodeINS_17__hash_value_typeINS_12basic_stringIcNS_11char_traitsIcEENS1_IcEEEENS_5arrayIdLm3EEEEEPvEEEEEEE5firstB7v160006Ev, symObjAddr: 0x44B0, symBinAddr: 0x1000053F0, symSize: 0x20 }
  - { offsetInCU: 0xF87C, offset: 0xF87C, size: 0x8, addend: 0x0, symName: __ZNKSt3__122__compressed_pair_elemImLi0ELb0EE5__getB7v160006Ev, symObjAddr: 0x44D0, symBinAddr: 0x100005410, symSize: 0x10 }
  - { offsetInCU: 0xF8A2, offset: 0xF8A2, size: 0x8, addend: 0x0, symName: __ZNKSt3__117__compressed_pairIPPNS_16__hash_node_baseIPNS_11__hash_nodeINS_17__hash_value_typeINS_12basic_stringIcNS_11char_traitsIcEENS_9allocatorIcEEEENS_5arrayIdLm3EEEEEPvEEEENS_25__bucket_list_deallocatorINS7_ISH_EEEEE5firstB7v160006Ev, symObjAddr: 0x44E0, symBinAddr: 0x100005420, symSize: 0x20 }
  - { offsetInCU: 0xF8C8, offset: 0xF8C8, size: 0x8, addend: 0x0, symName: __ZNKSt3__122__compressed_pair_elemIPPNS_16__hash_node_baseIPNS_11__hash_nodeINS_17__hash_value_typeINS_12basic_stringIcNS_11char_traitsIcEENS_9allocatorIcEEEENS_5arrayIdLm3EEEEEPvEEEELi0ELb0EE5__getB7v160006Ev, symObjAddr: 0x4500, symBinAddr: 0x100005440, symSize: 0x10 }
  - { offsetInCU: 0xF8EE, offset: 0xF8EE, size: 0x8, addend: 0x0, symName: __ZNSt3__117__compressed_pairIfNS_21__unordered_map_equalINS_12basic_stringIcNS_11char_traitsIcEENS_9allocatorIcEEEENS_17__hash_value_typeIS7_NS_5arrayIdLm3EEEEENS_8equal_toIS7_EENS_4hashIS7_EELb1EEEE6secondB7v160006Ev, symObjAddr: 0x4510, symBinAddr: 0x100005450, symSize: 0x20 }
  - { offsetInCU: 0xF914, offset: 0xF914, size: 0x8, addend: 0x0, symName: __ZNSt3__122__compressed_pair_elemINS_21__unordered_map_equalINS_12basic_stringIcNS_11char_traitsIcEENS_9allocatorIcEEEENS_17__hash_value_typeIS7_NS_5arrayIdLm3EEEEENS_8equal_toIS7_EENS_4hashIS7_EELb1EEELi1ELb1EE5__getB7v160006Ev, symObjAddr: 0x4530, symBinAddr: 0x100005470, symSize: 0x10 }
  - { offsetInCU: 0xF93A, offset: 0xF93A, size: 0x8, addend: 0x0, symName: __ZNKSt3__18equal_toINS_12basic_stringIcNS_11char_traitsIcEENS_9allocatorIcEEEEEclB7v160006ERKS6_S9_, symObjAddr: 0x4540, symBinAddr: 0x100005480, symSize: 0x30 }
  - { offsetInCU: 0xF97E, offset: 0xF97E, size: 0x8, addend: 0x0, symName: __ZNKSt3__117__hash_value_typeINS_12basic_stringIcNS_11char_traitsIcEENS_9allocatorIcEEEENS_5arrayIdLm3EEEE11__get_valueB7v160006Ev, symObjAddr: 0x4570, symBinAddr: 0x1000054B0, symSize: 0x10 }
  - { offsetInCU: 0xF9A4, offset: 0xF9A4, size: 0x8, addend: 0x0, symName: __ZNSt3__111char_traitsIcE7compareEPKcS3_m, symObjAddr: 0x4690, symBinAddr: 0x1000055D0, symSize: 0x70 }
  - { offsetInCU: 0xF9E3, offset: 0xF9E3, size: 0x8, addend: 0x0, symName: __ZNSt3__115__hash_iteratorIPNS_11__hash_nodeINS_17__hash_value_typeINS_12basic_stringIcNS_11char_traitsIcEENS_9allocatorIcEEEENS_5arrayIdLm3EEEEEPvEEEC2B7v160006EPNS_16__hash_node_baseISE_EEPKv, symObjAddr: 0x4730, symBinAddr: 0x100005670, symSize: 0x20 }
  - { offsetInCU: 0xFA2B, offset: 0xFA2B, size: 0x8, addend: 0x0, symName: __ZNSt3__119__hash_map_iteratorINS_15__hash_iteratorIPNS_11__hash_nodeINS_17__hash_value_typeINS_12basic_stringIcNS_11char_traitsIcEENS_9allocatorIcEEEENS_5arrayIdLm3EEEEEPvEEEEEC2B7v160006ESG_, symObjAddr: 0x4750, symBinAddr: 0x100005690, symSize: 0x20 }
  - { offsetInCU: 0xFA64, offset: 0xFA64, size: 0x8, addend: 0x0, symName: __ZNKSt3__119__hash_map_iteratorINS_15__hash_iteratorIPNS_11__hash_nodeINS_17__hash_value_typeINS_12basic_stringIcNS_11char_traitsIcEENS_9allocatorIcEEEENS_5arrayIdLm3EEEEEPvEEEEEptB7v160006Ev, symObjAddr: 0x47D0, symBinAddr: 0x100005710, symSize: 0x30 }
  - { offsetInCU: 0xFA8A, offset: 0xFA8A, size: 0x8, addend: 0x0, symName: __ZNSt3__113unordered_mapINS_12basic_stringIcNS_11char_traitsIcEENS_9allocatorIcEEEENS_5arrayIdLm3EEENS_4hashIS6_EENS_8equal_toIS6_EENS4_INS_4pairIKS6_S8_EEEEE25__construct_node_with_keyERSE_, symObjAddr: 0x4800, symBinAddr: 0x100005740, symSize: 0x140 }
  - { offsetInCU: 0xFAE0, offset: 0xFAE0, size: 0x8, addend: 0x0, symName: __ZNSt3__112__hash_tableINS_17__hash_value_typeINS_12basic_stringIcNS_11char_traitsIcEENS_9allocatorIcEEEENS_5arrayIdLm3EEEEENS_22__unordered_map_hasherIS7_SA_NS_4hashIS7_EENS_8equal_toIS7_EELb1EEENS_21__unordered_map_equalIS7_SA_SF_SD_Lb1EEENS5_ISA_EEE20__node_insert_uniqueEPNS_11__hash_nodeISA_PvEE, symObjAddr: 0x4940, symBinAddr: 0x100005880, symSize: 0xC0 }
  - { offsetInCU: 0xFB35, offset: 0xFB35, size: 0x8, addend: 0x0, symName: __ZNKSt3__110unique_ptrINS_11__hash_nodeINS_17__hash_value_typeINS_12basic_stringIcNS_11char_traitsIcEENS_9allocatorIcEEEENS_5arrayIdLm3EEEEEPvEENS_26__hash_map_node_destructorINS6_ISD_EEEEE3getB7v160006Ev, symObjAddr: 0x4A00, symBinAddr: 0x100005940, symSize: 0x20 }
  - { offsetInCU: 0xFB5B, offset: 0xFB5B, size: 0x8, addend: 0x0, symName: __ZNSt3__14pairINS_19__hash_map_iteratorINS_15__hash_iteratorIPNS_11__hash_nodeINS_17__hash_value_typeINS_12basic_stringIcNS_11char_traitsIcEENS_9allocatorIcEEEENS_5arrayIdLm3EEEEEPvEEEEEEbEC1B7v160006ISH_bEERKNS0_IT_T0_EE, symObjAddr: 0x4A20, symBinAddr: 0x100005960, symSize: 0x30 }
  - { offsetInCU: 0xFBA5, offset: 0xFBA5, size: 0x8, addend: 0x0, symName: __ZNSt3__110unique_ptrINS_11__hash_nodeINS_17__hash_value_typeINS_12basic_stringIcNS_11char_traitsIcEENS_9allocatorIcEEEENS_5arrayIdLm3EEEEEPvEENS_26__hash_map_node_destructorINS6_ISD_EEEEE7releaseB7v160006Ev, symObjAddr: 0x4A50, symBinAddr: 0x100005990, symSize: 0x40 }
  - { offsetInCU: 0xFBDA, offset: 0xFBDA, size: 0x8, addend: 0x0, symName: __ZNSt3__110unique_ptrINS_11__hash_nodeINS_17__hash_value_typeINS_12basic_stringIcNS_11char_traitsIcEENS_9allocatorIcEEEENS_5arrayIdLm3EEEEEPvEENS_26__hash_map_node_destructorINS6_ISD_EEEEED1B7v160006Ev, symObjAddr: 0x4A90, symBinAddr: 0x1000059D0, symSize: 0x20 }
  - { offsetInCU: 0xFC04, offset: 0xFC04, size: 0x8, addend: 0x0, symName: __ZNSt3__114pointer_traitsIPNS_4pairIKNS_12basic_stringIcNS_11char_traitsIcEENS_9allocatorIcEEEENS_5arrayIdLm3EEEEEE10pointer_toB7v160006ERSB_, symObjAddr: 0x4AB0, symBinAddr: 0x1000059F0, symSize: 0x10 }
  - { offsetInCU: 0xFC27, offset: 0xFC27, size: 0x8, addend: 0x0, symName: __ZNKSt3__115__hash_iteratorIPNS_11__hash_nodeINS_17__hash_value_typeINS_12basic_stringIcNS_11char_traitsIcEENS_9allocatorIcEEEENS_5arrayIdLm3EEEEEPvEEEptB7v160006Ev, symObjAddr: 0x4AC0, symBinAddr: 0x100005A00, symSize: 0x30 }
  - { offsetInCU: 0xFC4D, offset: 0xFC4D, size: 0x8, addend: 0x0, symName: __ZNSt3__114pointer_traitsIPNS_17__hash_value_typeINS_12basic_stringIcNS_11char_traitsIcEENS_9allocatorIcEEEENS_5arrayIdLm3EEEEEE10pointer_toB7v160006ERSA_, symObjAddr: 0x4AF0, symBinAddr: 0x100005A30, symSize: 0x10 }
  - { offsetInCU: 0xFC70, offset: 0xFC70, size: 0x8, addend: 0x0, symName: __ZNSt3__116allocator_traitsINS_9allocatorINS_11__hash_nodeINS_17__hash_value_typeINS_12basic_stringIcNS_11char_traitsIcEENS1_IcEEEENS_5arrayIdLm3EEEEEPvEEEEE8allocateB7v160006ERSE_m, symObjAddr: 0x4B00, symBinAddr: 0x100005A40, symSize: 0x30 }
  - { offsetInCU: 0xFCA3, offset: 0xFCA3, size: 0x8, addend: 0x0, symName: __ZNSt3__126__hash_map_node_destructorINS_9allocatorINS_11__hash_nodeINS_17__hash_value_typeINS_12basic_stringIcNS_11char_traitsIcEENS1_IcEEEENS_5arrayIdLm3EEEEEPvEEEEEC1B7v160006ERSE_, symObjAddr: 0x4B30, symBinAddr: 0x100005A70, symSize: 0x30 }
  - { offsetInCU: 0xFCE1, offset: 0xFCE1, size: 0x8, addend: 0x0, symName: __ZNSt3__110unique_ptrINS_11__hash_nodeINS_17__hash_value_typeINS_12basic_stringIcNS_11char_traitsIcEENS_9allocatorIcEEEENS_5arrayIdLm3EEEEEPvEENS_26__hash_map_node_destructorINS6_ISD_EEEEEC1B7v160006ILb1EvEEPSD_NS_16__dependent_typeINS_27__unique_ptr_deleter_sfinaeISG_EEXT_EE20__good_rval_ref_typeE, symObjAddr: 0x4B60, symBinAddr: 0x100005AA0, symSize: 0x30 }
  - { offsetInCU: 0xFD37, offset: 0xFD37, size: 0x8, addend: 0x0, symName: __ZNSt3__116allocator_traitsINS_9allocatorINS_11__hash_nodeINS_17__hash_value_typeINS_12basic_stringIcNS_11char_traitsIcEENS1_IcEEEENS_5arrayIdLm3EEEEEPvEEEEE9constructB7v160006IKS8_JRSH_EvEEvRSE_PT_DpOT0_, symObjAddr: 0x4B90, symBinAddr: 0x100005AD0, symSize: 0x30 }
  - { offsetInCU: 0xFD8E, offset: 0xFD8E, size: 0x8, addend: 0x0, symName: __ZNKSt3__110unique_ptrINS_11__hash_nodeINS_17__hash_value_typeINS_12basic_stringIcNS_11char_traitsIcEENS_9allocatorIcEEEENS_5arrayIdLm3EEEEEPvEENS_26__hash_map_node_destructorINS6_ISD_EEEEEptB7v160006Ev, symObjAddr: 0x4BC0, symBinAddr: 0x100005B00, symSize: 0x20 }
  - { offsetInCU: 0xFDB4, offset: 0xFDB4, size: 0x8, addend: 0x0, symName: __ZNSt3__110unique_ptrINS_11__hash_nodeINS_17__hash_value_typeINS_12basic_stringIcNS_11char_traitsIcEENS_9allocatorIcEEEENS_5arrayIdLm3EEEEEPvEENS_26__hash_map_node_destructorINS6_ISD_EEEEE11get_deleterB7v160006Ev, symObjAddr: 0x4BE0, symBinAddr: 0x100005B20, symSize: 0x20 }
  - { offsetInCU: 0xFDDF, offset: 0xFDDF, size: 0x8, addend: 0x0, symName: __ZNSt3__116allocator_traitsINS_9allocatorINS_11__hash_nodeINS_17__hash_value_typeINS_12basic_stringIcNS_11char_traitsIcEENS1_IcEEEENS_5arrayIdLm3EEEEEPvEEEEE9constructB7v160006ISA_JEvEEvRSE_PT_DpOT0_, symObjAddr: 0x4C00, symBinAddr: 0x100005B40, symSize: 0x30 }
  - { offsetInCU: 0xFE21, offset: 0xFE21, size: 0x8, addend: 0x0, symName: __ZNSt3__19allocatorINS_11__hash_nodeINS_17__hash_value_typeINS_12basic_stringIcNS_11char_traitsIcEENS0_IcEEEENS_5arrayIdLm3EEEEEPvEEE8allocateB7v160006Em, symObjAddr: 0x4C30, symBinAddr: 0x100005B70, symSize: 0x80 }
  - { offsetInCU: 0xFE5F, offset: 0xFE5F, size: 0x8, addend: 0x0, symName: __ZNSt3__116allocator_traitsINS_9allocatorINS_11__hash_nodeINS_17__hash_value_typeINS_12basic_stringIcNS_11char_traitsIcEENS1_IcEEEENS_5arrayIdLm3EEEEEPvEEEEE8max_sizeB7v160006ISE_vEEmRKSE_, symObjAddr: 0x4CB0, symBinAddr: 0x100005BF0, symSize: 0x20 }
  - { offsetInCU: 0xFE8D, offset: 0xFE8D, size: 0x8, addend: 0x0, symName: __ZNKSt3__19allocatorINS_11__hash_nodeINS_17__hash_value_typeINS_12basic_stringIcNS_11char_traitsIcEENS0_IcEEEENS_5arrayIdLm3EEEEEPvEEE8max_sizeB7v160006Ev, symObjAddr: 0x4CD0, symBinAddr: 0x100005C10, symSize: 0x20 }
  - { offsetInCU: 0xFEB3, offset: 0xFEB3, size: 0x8, addend: 0x0, symName: __ZNSt3__126__hash_map_node_destructorINS_9allocatorINS_11__hash_nodeINS_17__hash_value_typeINS_12basic_stringIcNS_11char_traitsIcEENS1_IcEEEENS_5arrayIdLm3EEEEEPvEEEEEC2B7v160006ERSE_, symObjAddr: 0x4CF0, symBinAddr: 0x100005C30, symSize: 0x30 }
  - { offsetInCU: 0xFEEC, offset: 0xFEEC, size: 0x8, addend: 0x0, symName: __ZNSt3__110unique_ptrINS_11__hash_nodeINS_17__hash_value_typeINS_12basic_stringIcNS_11char_traitsIcEENS_9allocatorIcEEEENS_5arrayIdLm3EEEEEPvEENS_26__hash_map_node_destructorINS6_ISD_EEEEEC2B7v160006ILb1EvEEPSD_NS_16__dependent_typeINS_27__unique_ptr_deleter_sfinaeISG_EEXT_EE20__good_rval_ref_typeE, symObjAddr: 0x4D20, symBinAddr: 0x100005C60, symSize: 0x50 }
  - { offsetInCU: 0xFF3D, offset: 0xFF3D, size: 0x8, addend: 0x0, symName: __ZNSt3__117__compressed_pairIPNS_11__hash_nodeINS_17__hash_value_typeINS_12basic_stringIcNS_11char_traitsIcEENS_9allocatorIcEEEENS_5arrayIdLm3EEEEEPvEENS_26__hash_map_node_destructorINS6_ISD_EEEEEC1B7v160006IRSE_SH_EEOT_OT0_, symObjAddr: 0x4D70, symBinAddr: 0x100005CB0, symSize: 0x30 }
  - { offsetInCU: 0xFF95, offset: 0xFF95, size: 0x8, addend: 0x0, symName: __ZNSt3__117__compressed_pairIPNS_11__hash_nodeINS_17__hash_value_typeINS_12basic_stringIcNS_11char_traitsIcEENS_9allocatorIcEEEENS_5arrayIdLm3EEEEEPvEENS_26__hash_map_node_destructorINS6_ISD_EEEEEC2B7v160006IRSE_SH_EEOT_OT0_, symObjAddr: 0x4DA0, symBinAddr: 0x100005CE0, symSize: 0x40 }
  - { offsetInCU: 0xFFED, offset: 0xFFED, size: 0x8, addend: 0x0, symName: __ZNSt3__122__compressed_pair_elemIPNS_11__hash_nodeINS_17__hash_value_typeINS_12basic_stringIcNS_11char_traitsIcEENS_9allocatorIcEEEENS_5arrayIdLm3EEEEEPvEELi0ELb0EEC2B7v160006IRSE_vEEOT_, symObjAddr: 0x4DE0, symBinAddr: 0x100005D20, symSize: 0x20 }
  - { offsetInCU: 0x1002F, offset: 0x1002F, size: 0x8, addend: 0x0, symName: __ZNSt3__122__compressed_pair_elemINS_26__hash_map_node_destructorINS_9allocatorINS_11__hash_nodeINS_17__hash_value_typeINS_12basic_stringIcNS_11char_traitsIcEENS2_IcEEEENS_5arrayIdLm3EEEEEPvEEEEEELi1ELb0EEC2B7v160006ISG_vEEOT_, symObjAddr: 0x4E00, symBinAddr: 0x100005D40, symSize: 0x30 }
  - { offsetInCU: 0x10071, offset: 0x10071, size: 0x8, addend: 0x0, symName: __ZNSt3__19allocatorINS_11__hash_nodeINS_17__hash_value_typeINS_12basic_stringIcNS_11char_traitsIcEENS0_IcEEEENS_5arrayIdLm3EEEEEPvEEE9constructB7v160006IKS7_JRSF_EEEvPT_DpOT0_, symObjAddr: 0x4E30, symBinAddr: 0x100005D70, symSize: 0x30 }
  - { offsetInCU: 0x100C7, offset: 0x100C7, size: 0x8, addend: 0x0, symName: __ZNKSt3__117__compressed_pairIPNS_11__hash_nodeINS_17__hash_value_typeINS_12basic_stringIcNS_11char_traitsIcEENS_9allocatorIcEEEENS_5arrayIdLm3EEEEEPvEENS_26__hash_map_node_destructorINS6_ISD_EEEEE5firstB7v160006Ev, symObjAddr: 0x4E60, symBinAddr: 0x100005DA0, symSize: 0x20 }
  - { offsetInCU: 0x100ED, offset: 0x100ED, size: 0x8, addend: 0x0, symName: __ZNKSt3__122__compressed_pair_elemIPNS_11__hash_nodeINS_17__hash_value_typeINS_12basic_stringIcNS_11char_traitsIcEENS_9allocatorIcEEEENS_5arrayIdLm3EEEEEPvEELi0ELb0EE5__getB7v160006Ev, symObjAddr: 0x4E80, symBinAddr: 0x100005DC0, symSize: 0x10 }
  - { offsetInCU: 0x10113, offset: 0x10113, size: 0x8, addend: 0x0, symName: __ZNSt3__117__compressed_pairIPNS_11__hash_nodeINS_17__hash_value_typeINS_12basic_stringIcNS_11char_traitsIcEENS_9allocatorIcEEEENS_5arrayIdLm3EEEEEPvEENS_26__hash_map_node_destructorINS6_ISD_EEEEE6secondB7v160006Ev, symObjAddr: 0x4E90, symBinAddr: 0x100005DD0, symSize: 0x20 }
  - { offsetInCU: 0x10139, offset: 0x10139, size: 0x8, addend: 0x0, symName: __ZNSt3__122__compressed_pair_elemINS_26__hash_map_node_destructorINS_9allocatorINS_11__hash_nodeINS_17__hash_value_typeINS_12basic_stringIcNS_11char_traitsIcEENS2_IcEEEENS_5arrayIdLm3EEEEEPvEEEEEELi1ELb0EE5__getB7v160006Ev, symObjAddr: 0x4EB0, symBinAddr: 0x100005DF0, symSize: 0x10 }
  - { offsetInCU: 0x1015F, offset: 0x1015F, size: 0x8, addend: 0x0, symName: __ZNSt3__19allocatorINS_11__hash_nodeINS_17__hash_value_typeINS_12basic_stringIcNS_11char_traitsIcEENS0_IcEEEENS_5arrayIdLm3EEEEEPvEEE9constructB7v160006IS9_JEEEvPT_DpOT0_, symObjAddr: 0x4EC0, symBinAddr: 0x100005E00, symSize: 0x30 }
  - { offsetInCU: 0x101A1, offset: 0x101A1, size: 0x8, addend: 0x0, symName: __ZNKSt3__122__unordered_map_hasherINS_12basic_stringIcNS_11char_traitsIcEENS_9allocatorIcEEEENS_17__hash_value_typeIS6_NS_5arrayIdLm3EEEEENS_4hashIS6_EENS_8equal_toIS6_EELb1EEclB7v160006ERKSA_, symObjAddr: 0x4EF0, symBinAddr: 0x100005E30, symSize: 0x40 }
  - { offsetInCU: 0x101D6, offset: 0x101D6, size: 0x8, addend: 0x0, symName: __ZNSt3__112__hash_tableINS_17__hash_value_typeINS_12basic_stringIcNS_11char_traitsIcEENS_9allocatorIcEEEENS_5arrayIdLm3EEEEENS_22__unordered_map_hasherIS7_SA_NS_4hashIS7_EENS_8equal_toIS7_EELb1EEENS_21__unordered_map_equalIS7_SA_SF_SD_Lb1EEENS5_ISA_EEE28__node_insert_unique_prepareB7v160006EmRSA_, symObjAddr: 0x4F30, symBinAddr: 0x100005E70, symSize: 0x2D0 }
  - { offsetInCU: 0x10258, offset: 0x10258, size: 0x8, addend: 0x0, symName: __ZNSt3__112__hash_tableINS_17__hash_value_typeINS_12basic_stringIcNS_11char_traitsIcEENS_9allocatorIcEEEENS_5arrayIdLm3EEEEENS_22__unordered_map_hasherIS7_SA_NS_4hashIS7_EENS_8equal_toIS7_EELb1EEENS_21__unordered_map_equalIS7_SA_SF_SD_Lb1EEENS5_ISA_EEE28__node_insert_unique_performB7v160006EPNS_11__hash_nodeISA_PvEE, symObjAddr: 0x5200, symBinAddr: 0x100006140, symSize: 0x140 }
  - { offsetInCU: 0x102BC, offset: 0x102BC, size: 0x8, addend: 0x0, symName: __ZNSt3__116__hash_node_baseIPNS_11__hash_nodeINS_17__hash_value_typeINS_12basic_stringIcNS_11char_traitsIcEENS_9allocatorIcEEEENS_5arrayIdLm3EEEEEPvEEE5__ptrB7v160006Ev, symObjAddr: 0x5340, symBinAddr: 0x100006280, symSize: 0x20 }
  - { offsetInCU: 0x102E2, offset: 0x102E2, size: 0x8, addend: 0x0, symName: __ZNSt3__14pairINS_15__hash_iteratorIPNS_11__hash_nodeINS_17__hash_value_typeINS_12basic_stringIcNS_11char_traitsIcEENS_9allocatorIcEEEENS_5arrayIdLm3EEEEEPvEEEEbEC1B7v160006ERKSG_RKb, symObjAddr: 0x5360, symBinAddr: 0x1000062A0, symSize: 0x30 }
  - { offsetInCU: 0x10328, offset: 0x10328, size: 0x8, addend: 0x0, symName: __ZNKSt3__121__unordered_map_equalINS_12basic_stringIcNS_11char_traitsIcEENS_9allocatorIcEEEENS_17__hash_value_typeIS6_NS_5arrayIdLm3EEEEENS_8equal_toIS6_EENS_4hashIS6_EELb1EEclB7v160006ERKSA_SH_, symObjAddr: 0x5390, symBinAddr: 0x1000062D0, symSize: 0x50 }
  - { offsetInCU: 0x1036C, offset: 0x1036C, size: 0x8, addend: 0x0, symName: __ZNSt3__112__hash_tableINS_17__hash_value_typeINS_12basic_stringIcNS_11char_traitsIcEENS_9allocatorIcEEEENS_5arrayIdLm3EEEEENS_22__unordered_map_hasherIS7_SA_NS_4hashIS7_EENS_8equal_toIS7_EELb1EEENS_21__unordered_map_equalIS7_SA_SF_SD_Lb1EEENS5_ISA_EEE4sizeB7v160006Ev, symObjAddr: 0x53E0, symBinAddr: 0x100006320, symSize: 0x20 }
  - { offsetInCU: 0x10392, offset: 0x10392, size: 0x8, addend: 0x0, symName: __ZNSt3__112__hash_tableINS_17__hash_value_typeINS_12basic_stringIcNS_11char_traitsIcEENS_9allocatorIcEEEENS_5arrayIdLm3EEEEENS_22__unordered_map_hasherIS7_SA_NS_4hashIS7_EENS_8equal_toIS7_EELb1EEENS_21__unordered_map_equalIS7_SA_SF_SD_Lb1EEENS5_ISA_EEE15max_load_factorB7v160006Ev, symObjAddr: 0x5400, symBinAddr: 0x100006340, symSize: 0x20 }
  - { offsetInCU: 0x103B8, offset: 0x103B8, size: 0x8, addend: 0x0, symName: __ZNSt3__112__hash_tableINS_17__hash_value_typeINS_12basic_stringIcNS_11char_traitsIcEENS_9allocatorIcEEEENS_5arrayIdLm3EEEEENS_22__unordered_map_hasherIS7_SA_NS_4hashIS7_EENS_8equal_toIS7_EELb1EEENS_21__unordered_map_equalIS7_SA_SF_SD_Lb1EEENS5_ISA_EEE15__rehash_uniqueB7v160006Em, symObjAddr: 0x5420, symBinAddr: 0x100006360, symSize: 0x30 }
  - { offsetInCU: 0x103EC, offset: 0x103EC, size: 0x8, addend: 0x0, symName: __Z4ceilB7v160006f, symObjAddr: 0x54C0, symBinAddr: 0x100006400, symSize: 0x20 }
  - { offsetInCU: 0x1041B, offset: 0x1041B, size: 0x8, addend: 0x0, symName: __ZNSt3__117__compressed_pairImNS_22__unordered_map_hasherINS_12basic_stringIcNS_11char_traitsIcEENS_9allocatorIcEEEENS_17__hash_value_typeIS7_NS_5arrayIdLm3EEEEENS_4hashIS7_EENS_8equal_toIS7_EELb1EEEE5firstB7v160006Ev, symObjAddr: 0x54E0, symBinAddr: 0x100006420, symSize: 0x20 }
  - { offsetInCU: 0x10441, offset: 0x10441, size: 0x8, addend: 0x0, symName: __ZNSt3__117__compressed_pairIfNS_21__unordered_map_equalINS_12basic_stringIcNS_11char_traitsIcEENS_9allocatorIcEEEENS_17__hash_value_typeIS7_NS_5arrayIdLm3EEEEENS_8equal_toIS7_EENS_4hashIS7_EELb1EEEE5firstB7v160006Ev, symObjAddr: 0x5500, symBinAddr: 0x100006440, symSize: 0x20 }
  - { offsetInCU: 0x10467, offset: 0x10467, size: 0x8, addend: 0x0, symName: __ZNSt3__122__compressed_pair_elemIfLi0ELb0EE5__getB7v160006Ev, symObjAddr: 0x5520, symBinAddr: 0x100006460, symSize: 0x10 }
  - { offsetInCU: 0x1048D, offset: 0x1048D, size: 0x8, addend: 0x0, symName: __ZNSt3__112__hash_tableINS_17__hash_value_typeINS_12basic_stringIcNS_11char_traitsIcEENS_9allocatorIcEEEENS_5arrayIdLm3EEEEENS_22__unordered_map_hasherIS7_SA_NS_4hashIS7_EENS_8equal_toIS7_EELb1EEENS_21__unordered_map_equalIS7_SA_SF_SD_Lb1EEENS5_ISA_EEE8__rehashILb1EEEvm, symObjAddr: 0x5530, symBinAddr: 0x100006470, symSize: 0x230 }
  - { offsetInCU: 0x104DD, offset: 0x104DD, size: 0x8, addend: 0x0, symName: __ZNSt3__112__hash_tableINS_17__hash_value_typeINS_12basic_stringIcNS_11char_traitsIcEENS_9allocatorIcEEEENS_5arrayIdLm3EEEEENS_22__unordered_map_hasherIS7_SA_NS_4hashIS7_EENS_8equal_toIS7_EELb1EEENS_21__unordered_map_equalIS7_SA_SF_SD_Lb1EEENS5_ISA_EEE11__do_rehashILb1EEEvm, symObjAddr: 0x5760, symBinAddr: 0x1000066A0, symSize: 0x260 }
  - { offsetInCU: 0x105C4, offset: 0x105C4, size: 0x8, addend: 0x0, symName: __ZNSt3__110unique_ptrIA_PNS_16__hash_node_baseIPNS_11__hash_nodeINS_17__hash_value_typeINS_12basic_stringIcNS_11char_traitsIcEENS_9allocatorIcEEEENS_5arrayIdLm3EEEEEPvEEEENS_25__bucket_list_deallocatorINS7_ISH_EEEEE11get_deleterB7v160006Ev, symObjAddr: 0x5A30, symBinAddr: 0x100006970, symSize: 0x20 }
  - { offsetInCU: 0x105EA, offset: 0x105EA, size: 0x8, addend: 0x0, symName: __ZNSt3__110unique_ptrIA_PNS_16__hash_node_baseIPNS_11__hash_nodeINS_17__hash_value_typeINS_12basic_stringIcNS_11char_traitsIcEENS_9allocatorIcEEEENS_5arrayIdLm3EEEEEPvEEEENS_25__bucket_list_deallocatorINS7_ISH_EEEEE5resetB7v160006IPSH_EENS_9enable_ifIXsr28_CheckArrayPointerConversionIT_EE5valueEvE4typeESQ_, symObjAddr: 0x5A50, symBinAddr: 0x100006990, symSize: 0x70 }
  - { offsetInCU: 0x10637, offset: 0x10637, size: 0x8, addend: 0x0, symName: __ZNSt3__116allocator_traitsINS_9allocatorIPNS_16__hash_node_baseIPNS_11__hash_nodeINS_17__hash_value_typeINS_12basic_stringIcNS_11char_traitsIcEENS1_IcEEEENS_5arrayIdLm3EEEEEPvEEEEEEE8allocateB7v160006ERSI_m, symObjAddr: 0x5AC0, symBinAddr: 0x100006A00, symSize: 0x30 }
  - { offsetInCU: 0x1066A, offset: 0x1066A, size: 0x8, addend: 0x0, symName: __ZNSt3__19allocatorIPNS_16__hash_node_baseIPNS_11__hash_nodeINS_17__hash_value_typeINS_12basic_stringIcNS_11char_traitsIcEENS0_IcEEEENS_5arrayIdLm3EEEEEPvEEEEE8allocateB7v160006Em, symObjAddr: 0x5AF0, symBinAddr: 0x100006A30, symSize: 0x80 }
  - { offsetInCU: 0x106A8, offset: 0x106A8, size: 0x8, addend: 0x0, symName: __ZNSt3__116allocator_traitsINS_9allocatorIPNS_16__hash_node_baseIPNS_11__hash_nodeINS_17__hash_value_typeINS_12basic_stringIcNS_11char_traitsIcEENS1_IcEEEENS_5arrayIdLm3EEEEEPvEEEEEEE8max_sizeB7v160006ISI_vEEmRKSI_, symObjAddr: 0x5B70, symBinAddr: 0x100006AB0, symSize: 0x20 }
  - { offsetInCU: 0x106D6, offset: 0x106D6, size: 0x8, addend: 0x0, symName: __ZNKSt3__19allocatorIPNS_16__hash_node_baseIPNS_11__hash_nodeINS_17__hash_value_typeINS_12basic_stringIcNS_11char_traitsIcEENS0_IcEEEENS_5arrayIdLm3EEEEEPvEEEEE8max_sizeB7v160006Ev, symObjAddr: 0x5B90, symBinAddr: 0x100006AD0, symSize: 0x20 }
  - { offsetInCU: 0x10706, offset: 0x10706, size: 0x8, addend: 0x0, symName: __ZNKSt3__16__lessImmEclB7v160006ERKmS3_, symObjAddr: 0x5C20, symBinAddr: 0x100006B60, symSize: 0x30 }
  - { offsetInCU: 0x10748, offset: 0x10748, size: 0x8, addend: 0x0, symName: __ZNSt3__14pairINS_15__hash_iteratorIPNS_11__hash_nodeINS_17__hash_value_typeINS_12basic_stringIcNS_11char_traitsIcEENS_9allocatorIcEEEENS_5arrayIdLm3EEEEEPvEEEEbEC2B7v160006ERKSG_RKb, symObjAddr: 0x5C50, symBinAddr: 0x100006B90, symSize: 0x30 }
  - { offsetInCU: 0x1078E, offset: 0x1078E, size: 0x8, addend: 0x0, symName: __ZNSt3__14pairINS_19__hash_map_iteratorINS_15__hash_iteratorIPNS_11__hash_nodeINS_17__hash_value_typeINS_12basic_stringIcNS_11char_traitsIcEENS_9allocatorIcEEEENS_5arrayIdLm3EEEEEPvEEEEEEbEC2B7v160006ISH_bEERKNS0_IT_T0_EE, symObjAddr: 0x5C80, symBinAddr: 0x100006BC0, symSize: 0x50 }
  - { offsetInCU: 0x107D8, offset: 0x107D8, size: 0x8, addend: 0x0, symName: __ZNSt3__117__compressed_pairIPNS_11__hash_nodeINS_17__hash_value_typeINS_12basic_stringIcNS_11char_traitsIcEENS_9allocatorIcEEEENS_5arrayIdLm3EEEEEPvEENS_26__hash_map_node_destructorINS6_ISD_EEEEE5firstB7v160006Ev, symObjAddr: 0x5CD0, symBinAddr: 0x100006C10, symSize: 0x20 }
  - { offsetInCU: 0x107FE, offset: 0x107FE, size: 0x8, addend: 0x0, symName: __ZNSt3__122__compressed_pair_elemIPNS_11__hash_nodeINS_17__hash_value_typeINS_12basic_stringIcNS_11char_traitsIcEENS_9allocatorIcEEEENS_5arrayIdLm3EEEEEPvEELi0ELb0EE5__getB7v160006Ev, symObjAddr: 0x5CF0, symBinAddr: 0x100006C30, symSize: 0x10 }
  - { offsetInCU: 0x10824, offset: 0x10824, size: 0x8, addend: 0x0, symName: __ZNSt3__110unique_ptrINS_11__hash_nodeINS_17__hash_value_typeINS_12basic_stringIcNS_11char_traitsIcEENS_9allocatorIcEEEENS_5arrayIdLm3EEEEEPvEENS_26__hash_map_node_destructorINS6_ISD_EEEEED2B7v160006Ev, symObjAddr: 0x5D00, symBinAddr: 0x100006C40, symSize: 0x20 }
  - { offsetInCU: 0x1084E, offset: 0x1084E, size: 0x8, addend: 0x0, symName: __ZNSt3__110unique_ptrINS_11__hash_nodeINS_17__hash_value_typeINS_12basic_stringIcNS_11char_traitsIcEENS_9allocatorIcEEEENS_5arrayIdLm3EEEEEPvEENS_26__hash_map_node_destructorINS6_ISD_EEEEE5resetB7v160006EPSD_, symObjAddr: 0x5D20, symBinAddr: 0x100006C60, symSize: 0x70 }
  - { offsetInCU: 0x10892, offset: 0x10892, size: 0x8, addend: 0x0, symName: __ZNSt3__126__hash_map_node_destructorINS_9allocatorINS_11__hash_nodeINS_17__hash_value_typeINS_12basic_stringIcNS_11char_traitsIcEENS1_IcEEEENS_5arrayIdLm3EEEEEPvEEEEEclB7v160006EPSD_, symObjAddr: 0x5D90, symBinAddr: 0x100006CD0, symSize: 0xD0 }
  - { offsetInCU: 0x108C7, offset: 0x108C7, size: 0x8, addend: 0x0, symName: __ZNSt3__116allocator_traitsINS_9allocatorINS_11__hash_nodeINS_17__hash_value_typeINS_12basic_stringIcNS_11char_traitsIcEENS1_IcEEEENS_5arrayIdLm3EEEEEPvEEEEE7destroyB7v160006ISA_vvEEvRSE_PT_, symObjAddr: 0x5E60, symBinAddr: 0x100006DA0, symSize: 0x10 }
  - { offsetInCU: 0x10902, offset: 0x10902, size: 0x8, addend: 0x0, symName: __ZNSt3__116allocator_traitsINS_9allocatorINS_11__hash_nodeINS_17__hash_value_typeINS_12basic_stringIcNS_11char_traitsIcEENS1_IcEEEENS_5arrayIdLm3EEEEEPvEEEEE7destroyB7v160006IKS8_vvEEvRSE_PT_, symObjAddr: 0x5E70, symBinAddr: 0x100006DB0, symSize: 0x20 }
  - { offsetInCU: 0x1093D, offset: 0x1093D, size: 0x8, addend: 0x0, symName: __ZNSt3__112__hash_tableINS_17__hash_value_typeINS_12basic_stringIcNS_11char_traitsIcEENS_9allocatorIcEEEENS_5arrayIdLm3EEEEENS_22__unordered_map_hasherIS7_SA_NS_4hashIS7_EENS_8equal_toIS7_EELb1EEENS_21__unordered_map_equalIS7_SA_SF_SD_Lb1EEENS5_ISA_EEE14__erase_uniqueIS7_EEmRKT_, symObjAddr: 0x5E90, symBinAddr: 0x100006DD0, symSize: 0x90 }
  - { offsetInCU: 0x1098C, offset: 0x1098C, size: 0x8, addend: 0x0, symName: __ZNSt3__112__hash_tableINS_17__hash_value_typeINS_12basic_stringIcNS_11char_traitsIcEENS_9allocatorIcEEEENS_5arrayIdLm3EEEEENS_22__unordered_map_hasherIS7_SA_NS_4hashIS7_EENS_8equal_toIS7_EELb1EEENS_21__unordered_map_equalIS7_SA_SF_SD_Lb1EEENS5_ISA_EEE5eraseENS_21__hash_const_iteratorIPNS_11__hash_nodeISA_PvEEEE, symObjAddr: 0x5F20, symBinAddr: 0x100006E60, symSize: 0x70 }
  - { offsetInCU: 0x109E1, offset: 0x109E1, size: 0x8, addend: 0x0, symName: __ZNSt3__121__hash_const_iteratorIPNS_11__hash_nodeINS_17__hash_value_typeINS_12basic_stringIcNS_11char_traitsIcEENS_9allocatorIcEEEENS_5arrayIdLm3EEEEEPvEEEC1B7v160006ERKNS_15__hash_iteratorISE_EE, symObjAddr: 0x5F90, symBinAddr: 0x100006ED0, symSize: 0x30 }
  - { offsetInCU: 0x10A1A, offset: 0x10A1A, size: 0x8, addend: 0x0, symName: __ZNSt3__115__hash_iteratorIPNS_11__hash_nodeINS_17__hash_value_typeINS_12basic_stringIcNS_11char_traitsIcEENS_9allocatorIcEEEENS_5arrayIdLm3EEEEEPvEEEppB7v160006Ev, symObjAddr: 0x5FC0, symBinAddr: 0x100006F00, symSize: 0x20 }
  - { offsetInCU: 0x10A40, offset: 0x10A40, size: 0x8, addend: 0x0, symName: __ZNSt3__112__hash_tableINS_17__hash_value_typeINS_12basic_stringIcNS_11char_traitsIcEENS_9allocatorIcEEEENS_5arrayIdLm3EEEEENS_22__unordered_map_hasherIS7_SA_NS_4hashIS7_EENS_8equal_toIS7_EELb1EEENS_21__unordered_map_equalIS7_SA_SF_SD_Lb1EEENS5_ISA_EEE6removeENS_21__hash_const_iteratorIPNS_11__hash_nodeISA_PvEEEE, symObjAddr: 0x5FE0, symBinAddr: 0x100006F20, symSize: 0x1F0 }
  - { offsetInCU: 0x10AD1, offset: 0x10AD1, size: 0x8, addend: 0x0, symName: __ZNSt3__110unique_ptrINS_11__hash_nodeINS_17__hash_value_typeINS_12basic_stringIcNS_11char_traitsIcEENS_9allocatorIcEEEENS_5arrayIdLm3EEEEEPvEENS_22__hash_node_destructorINS6_ISD_EEEEED1B7v160006Ev, symObjAddr: 0x61D0, symBinAddr: 0x100007110, symSize: 0x20 }
  - { offsetInCU: 0x10AFB, offset: 0x10AFB, size: 0x8, addend: 0x0, symName: __ZNSt3__122__hash_node_destructorINS_9allocatorINS_11__hash_nodeINS_17__hash_value_typeINS_12basic_stringIcNS_11char_traitsIcEENS1_IcEEEENS_5arrayIdLm3EEEEEPvEEEEEC1B7v160006ERSE_b, symObjAddr: 0x61F0, symBinAddr: 0x100007130, symSize: 0x40 }
  - { offsetInCU: 0x10B48, offset: 0x10B48, size: 0x8, addend: 0x0, symName: __ZNSt3__110unique_ptrINS_11__hash_nodeINS_17__hash_value_typeINS_12basic_stringIcNS_11char_traitsIcEENS_9allocatorIcEEEENS_5arrayIdLm3EEEEEPvEENS_22__hash_node_destructorINS6_ISD_EEEEEC1B7v160006ILb1EvEEPSD_NS_16__dependent_typeINS_27__unique_ptr_deleter_sfinaeISG_EEXT_EE20__good_rval_ref_typeE, symObjAddr: 0x6230, symBinAddr: 0x100007170, symSize: 0x30 }
  - { offsetInCU: 0x10B99, offset: 0x10B99, size: 0x8, addend: 0x0, symName: __ZNSt3__122__hash_node_destructorINS_9allocatorINS_11__hash_nodeINS_17__hash_value_typeINS_12basic_stringIcNS_11char_traitsIcEENS1_IcEEEENS_5arrayIdLm3EEEEEPvEEEEEC2B7v160006ERSE_b, symObjAddr: 0x6260, symBinAddr: 0x1000071A0, symSize: 0x30 }
  - { offsetInCU: 0x10BE1, offset: 0x10BE1, size: 0x8, addend: 0x0, symName: __ZNSt3__110unique_ptrINS_11__hash_nodeINS_17__hash_value_typeINS_12basic_stringIcNS_11char_traitsIcEENS_9allocatorIcEEEENS_5arrayIdLm3EEEEEPvEENS_22__hash_node_destructorINS6_ISD_EEEEEC2B7v160006ILb1EvEEPSD_NS_16__dependent_typeINS_27__unique_ptr_deleter_sfinaeISG_EEXT_EE20__good_rval_ref_typeE, symObjAddr: 0x6290, symBinAddr: 0x1000071D0, symSize: 0x50 }
  - { offsetInCU: 0x10C32, offset: 0x10C32, size: 0x8, addend: 0x0, symName: __ZNSt3__117__compressed_pairIPNS_11__hash_nodeINS_17__hash_value_typeINS_12basic_stringIcNS_11char_traitsIcEENS_9allocatorIcEEEENS_5arrayIdLm3EEEEEPvEENS_22__hash_node_destructorINS6_ISD_EEEEEC1B7v160006IRSE_SH_EEOT_OT0_, symObjAddr: 0x62E0, symBinAddr: 0x100007220, symSize: 0x30 }
  - { offsetInCU: 0x10C8A, offset: 0x10C8A, size: 0x8, addend: 0x0, symName: __ZNSt3__117__compressed_pairIPNS_11__hash_nodeINS_17__hash_value_typeINS_12basic_stringIcNS_11char_traitsIcEENS_9allocatorIcEEEENS_5arrayIdLm3EEEEEPvEENS_22__hash_node_destructorINS6_ISD_EEEEEC2B7v160006IRSE_SH_EEOT_OT0_, symObjAddr: 0x6310, symBinAddr: 0x100007250, symSize: 0x40 }
  - { offsetInCU: 0x10CE2, offset: 0x10CE2, size: 0x8, addend: 0x0, symName: __ZNSt3__122__compressed_pair_elemINS_22__hash_node_destructorINS_9allocatorINS_11__hash_nodeINS_17__hash_value_typeINS_12basic_stringIcNS_11char_traitsIcEENS2_IcEEEENS_5arrayIdLm3EEEEEPvEEEEEELi1ELb0EEC2B7v160006ISG_vEEOT_, symObjAddr: 0x6350, symBinAddr: 0x100007290, symSize: 0x30 }
  - { offsetInCU: 0x10D24, offset: 0x10D24, size: 0x8, addend: 0x0, symName: __ZNSt3__110unique_ptrINS_11__hash_nodeINS_17__hash_value_typeINS_12basic_stringIcNS_11char_traitsIcEENS_9allocatorIcEEEENS_5arrayIdLm3EEEEEPvEENS_22__hash_node_destructorINS6_ISD_EEEEED2B7v160006Ev, symObjAddr: 0x6380, symBinAddr: 0x1000072C0, symSize: 0x20 }
  - { offsetInCU: 0x10D4E, offset: 0x10D4E, size: 0x8, addend: 0x0, symName: __ZNSt3__110unique_ptrINS_11__hash_nodeINS_17__hash_value_typeINS_12basic_stringIcNS_11char_traitsIcEENS_9allocatorIcEEEENS_5arrayIdLm3EEEEEPvEENS_22__hash_node_destructorINS6_ISD_EEEEE5resetB7v160006EPSD_, symObjAddr: 0x63A0, symBinAddr: 0x1000072E0, symSize: 0x70 }
  - { offsetInCU: 0x10D92, offset: 0x10D92, size: 0x8, addend: 0x0, symName: __ZNSt3__117__compressed_pairIPNS_11__hash_nodeINS_17__hash_value_typeINS_12basic_stringIcNS_11char_traitsIcEENS_9allocatorIcEEEENS_5arrayIdLm3EEEEEPvEENS_22__hash_node_destructorINS6_ISD_EEEEE5firstB7v160006Ev, symObjAddr: 0x6410, symBinAddr: 0x100007350, symSize: 0x20 }
  - { offsetInCU: 0x10DB8, offset: 0x10DB8, size: 0x8, addend: 0x0, symName: __ZNSt3__117__compressed_pairIPNS_11__hash_nodeINS_17__hash_value_typeINS_12basic_stringIcNS_11char_traitsIcEENS_9allocatorIcEEEENS_5arrayIdLm3EEEEEPvEENS_22__hash_node_destructorINS6_ISD_EEEEE6secondB7v160006Ev, symObjAddr: 0x6430, symBinAddr: 0x100007370, symSize: 0x20 }
  - { offsetInCU: 0x10DDE, offset: 0x10DDE, size: 0x8, addend: 0x0, symName: __ZNSt3__122__hash_node_destructorINS_9allocatorINS_11__hash_nodeINS_17__hash_value_typeINS_12basic_stringIcNS_11char_traitsIcEENS1_IcEEEENS_5arrayIdLm3EEEEEPvEEEEEclB7v160006EPSD_, symObjAddr: 0x6450, symBinAddr: 0x100007390, symSize: 0xA0 }
  - { offsetInCU: 0x10E13, offset: 0x10E13, size: 0x8, addend: 0x0, symName: __ZNSt3__122__compressed_pair_elemINS_22__hash_node_destructorINS_9allocatorINS_11__hash_nodeINS_17__hash_value_typeINS_12basic_stringIcNS_11char_traitsIcEENS2_IcEEEENS_5arrayIdLm3EEEEEPvEEEEEELi1ELb0EE5__getB7v160006Ev, symObjAddr: 0x64F0, symBinAddr: 0x100007430, symSize: 0x10 }
  - { offsetInCU: 0x10E39, offset: 0x10E39, size: 0x8, addend: 0x0, symName: __ZNSt3__121__hash_const_iteratorIPNS_11__hash_nodeINS_17__hash_value_typeINS_12basic_stringIcNS_11char_traitsIcEENS_9allocatorIcEEEENS_5arrayIdLm3EEEEEPvEEEC2B7v160006ERKNS_15__hash_iteratorISE_EE, symObjAddr: 0x6500, symBinAddr: 0x100007440, symSize: 0x20 }
  - { offsetInCU: 0x10E72, offset: 0x10E72, size: 0x8, addend: 0x0, symName: __ZNKSt3__112__hash_tableINS_17__hash_value_typeINS_12basic_stringIcNS_11char_traitsIcEENS_9allocatorIcEEEENS_5arrayIdLm3EEEEENS_22__unordered_map_hasherIS7_SA_NS_4hashIS7_EENS_8equal_toIS7_EELb1EEENS_21__unordered_map_equalIS7_SA_SF_SD_Lb1EEENS5_ISA_EEE4sizeB7v160006Ev, symObjAddr: 0x6520, symBinAddr: 0x100007460, symSize: 0x30 }
  - { offsetInCU: 0x10E98, offset: 0x10E98, size: 0x8, addend: 0x0, symName: __ZNKSt3__117__compressed_pairImNS_22__unordered_map_hasherINS_12basic_stringIcNS_11char_traitsIcEENS_9allocatorIcEEEENS_17__hash_value_typeIS7_NS_5arrayIdLm3EEEEENS_4hashIS7_EENS_8equal_toIS7_EELb1EEEE5firstB7v160006Ev, symObjAddr: 0x6550, symBinAddr: 0x100007490, symSize: 0x20 }
  - { offsetInCU: 0x10EBE, offset: 0x10EBE, size: 0x8, addend: 0x0, symName: __ZNSt3__112__hash_tableINS_17__hash_value_typeINS_12basic_stringIcNS_11char_traitsIcEENS_9allocatorIcEEEENS_5arrayIdLm3EEEEENS_22__unordered_map_hasherIS7_SA_NS_4hashIS7_EENS_8equal_toIS7_EELb1EEENS_21__unordered_map_equalIS7_SA_SF_SD_Lb1EEENS5_ISA_EEE5beginEv, symObjAddr: 0x6570, symBinAddr: 0x1000074B0, symSize: 0x40 }
  - { offsetInCU: 0x10EE6, offset: 0x10EE6, size: 0x8, addend: 0x0, symName: __ZNSt3__125__hash_map_const_iteratorINS_21__hash_const_iteratorIPNS_11__hash_nodeINS_17__hash_value_typeINS_12basic_stringIcNS_11char_traitsIcEENS_9allocatorIcEEEENS_5arrayIdLm3EEEEEPvEEEEEC2B7v160006ENS_19__hash_map_iteratorINS_15__hash_iteratorISF_EEEE, symObjAddr: 0x65B0, symBinAddr: 0x1000074F0, symSize: 0x30 }
  - { offsetInCU: 0x10F1F, offset: 0x10F1F, size: 0x8, addend: 0x0, symName: __ZNSt3__125__hash_map_const_iteratorINS_21__hash_const_iteratorIPNS_11__hash_nodeINS_17__hash_value_typeINS_12basic_stringIcNS_11char_traitsIcEENS_9allocatorIcEEEENS_5arrayIdLm3EEEEEPvEEEEEppB7v160006Ev, symObjAddr: 0x6640, symBinAddr: 0x100007580, symSize: 0x30 }
  - { offsetInCU: 0x10F45, offset: 0x10F45, size: 0x8, addend: 0x0, symName: __ZNSt3__121__hash_const_iteratorIPNS_11__hash_nodeINS_17__hash_value_typeINS_12basic_stringIcNS_11char_traitsIcEENS_9allocatorIcEEEENS_5arrayIdLm3EEEEEPvEEEppB7v160006Ev, symObjAddr: 0x6670, symBinAddr: 0x1000075B0, symSize: 0x20 }
  - { offsetInCU: 0x10F6B, offset: 0x10F6B, size: 0x8, addend: 0x0, symName: __ZNSt3__114pointer_traitsIPKNS_4pairIKNS_12basic_stringIcNS_11char_traitsIcEENS_9allocatorIcEEEENS_5arrayIdLm3EEEEEE10pointer_toB7v160006ERSC_, symObjAddr: 0x6690, symBinAddr: 0x1000075D0, symSize: 0x10 }
  - { offsetInCU: 0x10F8E, offset: 0x10F8E, size: 0x8, addend: 0x0, symName: __ZNKSt3__121__hash_const_iteratorIPNS_11__hash_nodeINS_17__hash_value_typeINS_12basic_stringIcNS_11char_traitsIcEENS_9allocatorIcEEEENS_5arrayIdLm3EEEEEPvEEEptB7v160006Ev, symObjAddr: 0x66A0, symBinAddr: 0x1000075E0, symSize: 0x30 }
  - { offsetInCU: 0x10FB4, offset: 0x10FB4, size: 0x8, addend: 0x0, symName: __ZNSt3__114pointer_traitsIPKNS_17__hash_value_typeINS_12basic_stringIcNS_11char_traitsIcEENS_9allocatorIcEEEENS_5arrayIdLm3EEEEEE10pointer_toB7v160006ERSB_, symObjAddr: 0x66D0, symBinAddr: 0x100007610, symSize: 0xE }
...
